(lp0
F0.06026600383342239
aF0.02769051154028223
aF0.059075506345179433
aF0.06343933418167598
aF0.08455894558963693
aF0.06964806667190904
aF0.06259648389997213
aF0.07187628449731615
aF0.08011315921830257
aF0.0677507309724521
aF0.06864014262959044
aF0.051261166954781785
aF0.05457922011998085
aF0.045647022493144396
aF0.037251438855345625
aF0.054209120766119834
aF0.051809043605370746
aF0.0570071968472882
aF0.06757397391967476
aF0.07623030735472493
aF0.06462555492120771
aF0.05997177768029646
aF0.08490299324069342
aF0.0532335905043343
aF0.07367891843274238
aF0.053030042596532746
aF0.05226204440670448
aF0.05530364677098257
aF0.06118088528341691
aF0.08556135975002785
aF0.060012164698420446
aF0.05848345330941512
aF0.06236096197256196
aF0.07982147838500124
aF0.05138173692448632
aF0.05314218998551809
aF0.06772365432269921
aF0.0631096906519215
aF0.059396080675742605
aF0.06469285041310734
aF0.035759774038875286
aF0.06600864113968251
aF0.06153519592826308
aF0.05444105023075787
aF0.05219424334125964
aF0.058104504993146344
aF0.06373707854653916
aF0.04694707621415991
aF0.08256908417806652
aF0.03911452217673574
aF0.068640724450733
aF0.07075689636832973
aF0.043169147242228034
aF0.04386194806019504
aF0.06200778246787073
aF0.0692783618216457
aF0.07532311645376338
a.