(lp0
I239
aI282
aI131
aI141
aI101
aI138
aI275
aI236
aI117
aI60
aI127
aI177
aI240
aI122
aI75
aI270
aI111
aI159
aI73
aI129
aI116
aI170
aI364
aI281
aI158
aI403
aI291
aI113
aI129
aI192
aI210
aI239
aI116
aI362
aI108
aI236
aI115
aI196
aI174
aI185
aI314
aI305
aI135
aI114
aI129
aI278
aI124
aI292
aI68
aI65
aI148
aI218
aI157
aI129
aI161
aI125
aI177
aI128
aI369
aI536
aI268
aI334
aI248
aI192
aI86
aI449
aI61
aI309
aI169
aI129
aI104
aI129
aI131
aI101
aI280
aI114
aI113
aI197
aI60
aI142
aI257
aI195
aI245
aI129
aI99
aI65
aI129
aI239
aI349
aI313
aI74
aI42
aI56
aI330
aI185
aI131
aI234
aI320
aI116
aI130
aI162
aI127
aI255
aI283
aI117
aI239
aI106
aI145
aI137
aI365
aI349
aI56
aI50
aI224
aI364
aI255
aI135
aI41
aI132
aI113
a.