(lp0
F0.01267846437797797
aF0.033510168857943064
aF0.03900815878643043
aF0.03160514476807249
aF0.013356503948684916
aF0.03866966565713759
aF0.030205730381409914
aF0.04446487593852871
aF0.004114453049483835
aF0.04814868928499266
aF0.04868757104470797
aF0.03202957794016394
aF0.021804491320603227
aF0.019019555632108543
aF0.053897977193206874
aF0.0106575917530245
aF0.02026629117159368
aF0.014171630366394794
aF0.010906886452449709
aF0.0313781928238609
aF0.004995798865169987
aF0.01237251762156654
aF0.003783259409202711
aF0.0187584087982495
aF0.019245365141759188
aF0.03028043596409535
aF0.06306156271675423
aF0.014189249019587066
aF0.0027739199288047112
aF0.013467518267731288
aF0.010798732646044397
aF0.03127920609126724
aF0.03218135193593728
aF0.022322446580633523
aF0.007802061397046592
aF0.0473426910365773
aF0.004550408892005798
aF0.00943593832577246
aF0.031159841460949477
aF0.03124194785199442
aF0.02392187164261957
aF0.04118801081970518
aF0.003918892656210764
aF0.00788578118512717
aF0.023380101040203702
aF0.03346376316920733
aF0.012858326169545969
aF0.0033234221848736996
aF0.02505636882262623
aF0.04168672978448022
aF0.040162439086538985
aF0.024223243231220208
aF0.03836448807671083
aF0.02217835361254409
a.