(lp0
F32.16126636579798
aF32.8383271854963
aF32.818230697895736
aF32.868421740432886
aF31.328751594618122
aF32.81819705234885
aF32.79597751383718
aF32.839564047055426
aF33.04655694812314
aF36.1090769160375
aF31.815933548715318
aF32.853005399341875
aF32.8729759266875
aF33.01985392199101
aF32.93144070147838
aF33.376416660447
aF32.87680734150905
aF50.820775119659835
a.