(lp0
F28.27780794214651
aF21.46578429201407
aF28.832734508098195
aF33.27875538585331
aF27.088861350430864
aF30.715375009380526
aF31.229955399645373
aF44.3691035906535
aF27.08296679821305
aF22.082236059423668
aF31.149793118306338
aF39.23507441332106
aF21.3525905113237
aF23.759300813599744
aF25.434287985203618
aF35.112885660202515
aF27.525575464186655
aF28.371683736947844
aF26.938790064792617
aF34.845305690545025
aF21.542781182464896
aF23.686322845978907
aF30.222998472076952
aF25.451631822916585
aF30.723546432573073
aF29.964473725923376
aF32.7923907997331
aF25.143476140120008
aF23.705899325511428
aF29.633986756804912
aF26.007456003046943
aF27.019675866495508
aF43.044675415788
aF21.337943712426586
aF30.11392136284981
aF23.214948259273193
aF33.545608128948494
aF35.322688960020294
aF25.731268324441587
aF21.470286090523956
aF26.989398942776507
aF34.750304973019226
aF29.819255873457795
aF26.32826544564921
aF26.355832061509357
aF30.24159112264512
aF26.015587566159986
aF22.47928735416169
aF23.566842054580167
aF26.912140907978095
aF21.343086942997296
aF28.377191145130787
aF31.969729207281656
aF28.257289951811604
aF23.728363962038674
aF24.16542928889378
aF45.016611255121234
aF26.34238841495712
aF27.412070111537172
aF38.30898709825887
aF29.874929842429033
aF21.53357359786095
a.