(lp0
I523
aI463
aI282
aI84
aI467
aI288
aI466
aI338
aI468
aI621
aI603
aI292
aI366
aI304
aI574
aI601
aI282
aI504
aI403
aI402
aI639
aI126
aI510
aI487
aI382
aI253
aI118
aI289
aI259
aI482
aI108
aI431
aI244
aI428
aI266
aI347
a.