(lp0
F27.399872678165256
aF37.27554259405479
aF26.840442856091418
aF21.542979662550323
aF37.10460106520335
aF20.859107755632504
aF31.883914211668685
aF26.54520866420443
aF27.537452993320453
aF23.664160218713793
aF26.508466399475644
aF24.40328329281856
aF28.941549480550623
aF23.921690596463037
aF30.835531092611518
aF20.828518832375376
aF23.8555219078086
aF23.98921151773055
aF21.469893069908007
aF34.50917209512917
aF37.507818250280046
a.