(lp0
F21.95433048718727
aF17.563388596858406
aF20.666972203630557
aF23.10673193244887
aF21.069337763380084
aF26.763612517070683
aF25.95163183652199
aF23.2752290010086
aF22.810207969117954
aF17.45640634729327
aF25.545518168116864
aF21.733007910900557
aF19.950266871899537
aF18.71811058037952
aF23.85357930498032
aF44.165261392531455
aF31.88466230574491
aF21.391931087686935
aF23.833895757617285
aF21.794187684788273
aF21.620051164664858
aF19.408573964946722
aF19.55364620680199
aF22.204604498497762
aF26.646962436333872
aF22.240112090199048
aF20.22764517386897
aF23.61331033314913
aF18.5986492098143
aF21.81694478070191
aF21.20160604962416
aF21.379115885097665
aF16.577259809307503
aF23.371681351298474
aF21.012907028436597
aF18.57440467195698
aF125.4953652656741
aF27.907579321142343
aF27.531587100022758
aF21.029788121679903
aF22.25983434207719
aF23.992088089534743
aF29.788473929582477
aF39.48140987835666
aF18.25484560816622
aF83.25939481560967
aF25.02653323881223
aF20.744455962964455
aF22.42700208668823
aF15.388135745265908
aF18.427296473346203
aF21.501938735138076
aF25.89399696317535
aF18.518395961739493
aF26.16614584712283
aF20.427275209249615
aF18.021757433124385
aF23.846715738906
aF19.33730197648614
aF21.77384302895213
aF23.433944418328842
aF24.281734541118457
aF19.766909475791415
aF30.23289164556387
aF22.55014437470891
aF23.942893231703003
aF20.060666508976038
aF18.590157888865697
aF20.404775190051016
aF27.25389904262128
aF17.80279787162967
aF32.60806147284557
aF26.62947330200855
aF29.738104381299138
aF28.711816382412966
aF24.271617337339464
aF22.742247122774252
aF25.166143906319423
aF78.07401628284116
aF19.77370734083936
aF37.32059921490946
aF19.020614776979457
aF23.722444983518944
aF23.15921680395876
aF23.85065969701119
aF16.02848260555933
aF21.26737644305124
aF20.137180791176085
aF22.123917693775123
aF26.36304507180256
aF20.539463045525288
aF23.5333782740641
aF23.828806438835496
aF22.028406184442613
aF17.166991610171028
aF36.932923727635334
aF18.302680419083902
aF21.526224710256436
aF27.776624771499
aF26.826880654177923
aF26.21223500612933
aF32.37755982289045
aF21.804089063983508
aF20.714490906691854
aF43.60255847224008
aF26.51578280777438
aF17.62657922678069
aF18.996810613166968
aF19.13135967346594
aF24.01879001633595
aF22.74377919274414
aF26.646894027864935
aF23.16372571291147
aF22.81640572923521
aF21.901018697550207
aF43.52529648886159
aF21.703557392469882
aF20.587457150006877
aF24.06900691834055
aF23.889867440834756
aF24.16446313055985
aF25.07052038026737
aF23.61193400280142
aF16.89579378547218
aF24.164030670599463
aF20.706646689516308
aF20.028787215049647
aF21.52228288327767
aF18.78727936031064
aF25.04644999725052
aF20.669973771795778
aF22.33048480848154
aF23.391093826421873
aF28.102194193758688
aF21.126261228097405
aF21.105216675190317
aF28.17198574747973
aF17.174517382965096
aF22.72520857288228
aF27.127956385595443
aF26.277704210767645
aF38.891727133088175
aF23.48939990783452
aF18.560697280316635
a.