(lp0
F0.05709293320866341
aF0.06782261383326031
aF0.06848389831886595
aF0.06747062344910436
aF0.038578741604410306
aF0.06301750836284119
aF0.06230386505529661
aF0.06736715173854357
aF0.06592211501867525
aF0.025893646028820657
aF0.026451058422132235
aF0.06735724904827099
aF0.06713519006474958
aF0.06582657266622845
aF0.06597427222265949
aF0.0680007960034874
aF0.06778176853164397
aF0.020397465620226922
a.