(lp0
F36.53989593538308
aF36.694475385082114
aF32.52444215843407
aF33.42906751509686
aF30.558869432398314
aF33.41401198456582
aF33.52861644272792
aF36.41011772543677
aF33.75980963910072
aF29.37278659684784
aF29.88258387248045
aF30.63732041516464
aF36.80072150293415
aF32.40823621973813
aF29.324991925813457
aF30.48392786584978
aF33.80248029054605
aF30.607996568372826
aF36.521119497455366
aF35.66135737062053
aF34.514633594408906
aF34.776267205652616
aF30.607432319580493
aF30.425091704207734
aF31.939427857689722
aF33.739068861410544
aF31.796176154149794
aF33.580955986302065
aF31.583446725659016
aF36.48760670026733
aF30.61562852230978
aF30.033427550236603
aF36.31897263599285
aF30.57817422517899
aF30.661291530493564
aF30.545868309517356
aF29.687138137463435
aF33.84385597674392
aF30.661735687376435
aF29.46896483534826
aF30.510012869994476
aF30.593982612874527
aF32.760166140853514
aF33.02488880674063
aF32.719727442245116
aF34.0546570614566
aF35.61133430428458
aF34.281940654536406
aF32.49964913718886
aF33.36193565200315
aF35.39415343108947
aF32.5292019541994
aF30.7470759955934
aF32.4868501447827
aF30.46083161601726
aF32.572901166520104
aF30.561625535576223
aF29.60093315298682
aF30.750653136069463
aF30.461390322674834
aF42.596816596668596
aF34.61810797182576
aF31.74899782398411
aF32.919286826935114
aF44.63916035140118
aF35.898728876842625
aF29.66975609816665
aF71.21308522821418
aF30.41736550671404
aF30.664470564006475
aF30.326942570022577
aF33.43805555661486
aF34.62184055307823
aF32.80525776898378
aF30.56424391777217
aF32.00235569703251
aF30.834409550142237
aF33.11347977297143
aF31.428277197544375
aF33.128594919949165
aF30.986471837702613
aF30.56096915790739
a.