(lp0
F21.46578429201407
aF28.832734508098195
aF33.27875538585331
aF27.088861350430864
aF30.715375009380526
aF35.114979924097995
aF31.229955399645373
aF44.3691035906535
aF27.08296679821305
aF23.192898456682947
aF28.53237887682414
aF37.10226225824089
aF22.082236059423668
aF31.149793118306338
aF23.973864068520033
aF39.23507441332106
aF32.77572312138402
aF21.3525905113237
aF23.759300813599744
aF26.407590759917728
aF25.434287985203618
aF23.02729802725517
aF37.107307098250345
aF28.510495029108483
aF33.65000570742962
aF35.112885660202515
aF30.110008437209956
aF27.525575464186655
aF28.371683736947844
aF26.938790064792617
aF34.845305690545025
aF21.542781182464896
aF23.686322845978907
aF27.276625842821762
aF30.222998472076952
aF28.62552874093601
aF28.54950234481843
aF30.723546432573073
aF29.964473725923376
aF41.61758990882017
aF32.730449918786874
aF32.7923907997331
aF23.323357308453293
aF28.627699661877283
aF26.514211548940654
aF25.143476140120008
aF23.705899325511428
aF29.633986756804912
aF25.37606207457392
aF27.019675866495508
aF43.044675415788
aF21.337943712426586
aF32.63236757257675
aF41.34281983360374
aF23.29344598320992
aF30.11392136284981
aF44.120448760956414
aF22.403305389222933
aF38.59626331884457
aF23.214948259273193
aF33.545608128948494
aF35.322688960020294
aF25.731268324441587
aF21.470286090523956
aF23.42383582650112
aF26.989398942776507
aF31.949118842382624
aF34.750304973019226
aF29.819255873457795
aF23.09699591362761
aF26.32826544564921
aF26.355832061509357
aF30.24159112264512
aF26.4835916171019
aF22.47928735416169
aF41.68994189217571
aF23.566842054580167
aF33.93202591280611
aF26.912140907978095
aF22.015652284674193
aF21.343086942997296
aF28.377191145130787
aF31.969729207281656
aF33.74093843487933
aF28.257289951811604
aF41.69718314909927
aF23.728363962038674
aF27.175571797936698
aF24.16542928889378
aF18.21878411299075
aF45.016611255121234
aF26.34238841495712
aF27.412070111537172
aF28.550286439404506
aF38.30898709825887
aF29.874929842429033
aF23.27988417053878
aF21.53357359786095
a.