(lp0
F17.1564379762391
aF18.309510626452695
aF15.748562224384905
aF15.431058531680904
aF14.824035017464519
aF18.21284494771297
aF19.220769062964756
aF25.032482855790864
aF14.163676870639476
aF11.484616466129765
aF14.221996306583247
aF17.22634411368761
aF18.417874825398073
aF14.629991669132151
aF11.816708583424424
aF20.170556351417513
aF18.48117395199948
aF14.908174624955839
aF26.63473541857581
aF15.300109388843863
aF21.220568431726846
aF16.297191503495533
aF19.364232991752953
aF21.799394981425127
aF15.455423545970199
aF22.677654162115058
aF17.83050195512077
aF27.49464476608875
aF14.273382631664708
aF21.8168809067297
aF24.284415154033503
aF17.087097211933237
aF14.191109294219856
aF19.5424486831457
aF14.106036603039371
aF20.003884719650365
aF16.00057722522784
aF21.717617277683974
aF18.319950263356315
aF18.62106537096805
aF18.48225613731537
aF17.90731301210084
aF14.796991136021129
aF15.190158247588244
aF15.432545286810749
aF18.052524055871924
aF16.48101307746838
aF17.837458560743688
aF29.511868375510453
aF17.005609943342282
aF16.832121732818138
aF24.194190488583576
aF15.834791035646909
aF14.241763772500438
aF19.095840259353597
aF13.586878263843483
aF16.186323254267343
aF14.230530484202516
aF20.571130408480016
aF23.49311566209364
aF17.20672076644652
aF18.99236890470733
aF17.074423397062446
aF16.022617700225368
aF13.958834641212647
aF28.32463536831005
aF27.017399237542566
aF19.123805723283187
aF17.174770403481023
aF14.284067881092772
aF13.259789135942706
aF14.28305302599987
aF15.556490138196379
aF14.892787922026134
aF18.186642325887174
aF14.211045666244514
aF16.972835215217874
aF17.651396497114114
aF16.88344406834829
aF21.759697364008254
aF21.59263799270408
aF20.23418108119967
aF18.70972623272688
aF14.270544482588514
aF14.414493511095
aF16.890966266864158
aF14.280110879905699
aF17.08094705805336
aF19.43535135659855
aF18.005038338130813
aF32.28325769131594
aF20.13964238298745
aF24.473044179434748
aF19.53223301802716
aF16.84271213529958
aF15.428793883371998
aF19.92234416057676
aF17.77890052079174
aF14.372381239771219
aF23.69612908072595
aF16.29182913949215
aF14.211825801800797
aF18.82758257646402
aF20.54041394549661
aF18.00240176656949
aF21.99045791463704
aF15.946070639387843
aF21.680393895829813
aF21.550567497115185
aF32.84757917008777
aF19.434853749762873
aF11.51938089650622
aF22.590673266420126
aF37.62772276195981
aF19.59903255625213
aF20.157216002971104
aF14.568262058723771
aF13.294176720794004
aF16.773525265018208
aF15.132636603665688
a.