(lp0
I201
aI287
aI327
aI242
aI438
aI327
aI238
aI346
aI349
aI380
aI333
aI306
aI455
aI288
aI214
aI307
aI464
aI333
aI207
aI239
aI274
aI210
aI342
aI506
aI189
aI238
aI322
aI151
aI208
aI83
aI190
aI370
aI399
aI273
aI275
aI349
aI279
aI180
aI242
aI405
aI172
aI248
aI274
aI269
aI342
aI185
aI148
aI276
aI364
aI304
aI327
aI168
aI314
aI344
a.