(lp0
I434
aI217
aI191
aI168
aI402
aI327
aI314
aI217
aI314
aI271
aI480
aI263
aI266
aI421
aI280
aI212
aI309
aI310
aI266
aI295
aI314
aI263
aI217
aI210
aI266
aI305
aI474
aI496
aI243
aI485
aI330
aI305
aI208
aI311
aI216
aI194
aI217
aI227
aI217
aI220
aI485
aI374
aI217
aI231
aI312
aI361
aI266
aI413
aI335
aI480
aI266
aI308
aI307
aI212
a.