(lp0
F0.024082474228381338
aF0.03770344338175206
aF0.0254099221073071
aF0.08847000183948295
aF0.04031680833322684
aF0.026071612661413748
aF0.042732948050159494
aF0.03576783434200593
aF0.04575086554135332
aF0.01948040894990072
aF0.03157928878945342
aF0.01606372291944911
aF0.02198811362511232
aF0.033415038802181336
aF0.013347989967916396
aF0.01710991343087022
aF0.03130662904655004
aF0.034819951627516825
aF0.020765291105051743
aF0.017578692675181435
aF0.04283829133478493
aF0.015075006231176313
aF0.03434043159753917
aF0.017257017082551097
aF0.020207492604077004
aF0.0170673208042756
aF0.03579587016613997
aF0.02539074795172583
aF0.015410199798497557
aF0.029982687460383236
aF0.045818577704940376
aF0.007007430226440604
aF0.05492596251187231
aF0.02862851716094144
aF0.0464606036763932
aF0.040526434356954695
aF0.03440761174760721
aF0.07782786665078943
aF0.03435988793995642
aF0.06849101201373622
aF0.03096371217348183
aF0.050100954429386016
aF0.03210928548955614
aF0.07726011768635098
aF0.0378918010080328
aF0.04347531524771373
aF0.020643805873830492
aF0.04438043236017913
aF0.026112914372009258
aF0.029545250857055026
aF0.0214023196473693
aF0.023183760803689002
aF0.03656560130664001
aF0.017152274075205882
a.