(lp0
I208
aI754
aI388
aI756
aI431
aI292
aI338
aI313
aI501
aI448
aI486
aI154
aI559
aI337
aI586
aI324
aI755
aI466
aI514
aI754
aI355
aI473
aI448
aI621
aI423
aI284
aI466
aI372
aI487
aI323
aI517
aI269
aI599
aI754
aI239
aI511
aI487
aI267
aI754
aI298
aI439
aI470
aI445
aI474
aI260
aI334
aI257
aI668
aI477
aI498
aI491
aI500
aI325
aI530
aI217
aI85
aI679
aI403
aI504
aI558
aI653
aI298
aI558
aI479
aI298
aI467
aI286
aI308
aI444
aI269
aI337
aI223
aI511
aI398
aI478
aI444
aI728
aI614
aI340
aI240
aI517
aI473
aI304
aI313
aI821
aI331
aI483
aI404
aI497
aI356
aI435
aI503
aI517
aI355
aI473
aI294
aI523
aI455
a.