(lp0
F0.03347925598160003
aF0.03276065457418407
aF0.05620173737450065
aF0.029453148091759848
aF0.0651851074393215
aF0.033682961196085305
aF0.03403969553691349
aF0.03555312065846541
aF0.03218837408149351
aF0.052096080509215124
aF0.050234012900693896
aF0.06556015120806975
aF0.029955042731222535
aF0.055151494909774466
aF0.06389777273796152
aF0.07114793006511218
aF0.03476886219916297
aF0.06710164264148363
aF0.05365161067328277
aF0.06742136808072621
aF0.03092928938640882
aF0.049739272943154875
aF0.06900787580451255
aF0.06817199365505162
aF0.05433227958168617
aF0.03146220846192294
aF0.055094255321503076
aF0.03566454764525258
aF0.05420526675347618
aF0.03392140431315968
aF0.0657797612945132
aF0.05249721631878872
aF0.03641049472887906
aF0.06567638456067683
aF0.06767039789364226
aF0.0654042779524359
aF0.04760803081679903
aF0.03172156553377593
aF0.06656334662260893
aF0.06593812934236472
aF0.06790282355515287
aF0.06546655610902677
aF0.07005406558914307
aF0.03026998956152248
aF0.031719921710285266
aF0.030799124640645003
aF0.046397728944980024
aF0.029529674499683987
aF0.056696384688045144
aF0.03334704267203953
aF0.029022014415345927
aF0.05882287999380962
aF0.06723673206256017
aF0.055267134006941034
aF0.07374912747983425
aF0.05648133504911335
aF0.07097172217722464
aF0.07099178090292817
aF0.06441089640276976
aF0.069850859240981
aF0.018983185953840832
aF0.040318422706810776
aF0.04588592413169475
aF0.06642486991765187
aF0.02840833983545724
aF0.033386102080309385
aF0.05322892100825832
aF0.029375579077902853
aF0.06722022775606357
aF0.06508805348150659
aF0.06039828854247256
aF0.032396475932060395
aF0.03424407030493445
aF0.05681748610785683
aF0.06737115279008796
aF0.05021829592659535
aF0.06365279245007768
aF0.036436253238533195
aF0.047531871535402226
aF0.036770423434822036
aF0.059726473356638346
aF0.0658052146489567
a.