(lp0
F0.040971891250193536
aF0.058808521502625714
aF0.057126613800421146
aF0.04526870988516442
aF0.07979569242563983
aF0.07847172460480524
aF0.05796393070096359
aF0.061220982290081466
aF0.057971315744347635
aF0.055283092247860544
aF0.03486129938476003
aF0.02657739789303474
aF0.060412416994562304
aF0.03652215354948988
aF0.04511074636352925
aF0.03333421790863246
aF0.0358186292906976
aF0.040861274582831064
aF0.052463696655298535
aF0.027553866234004173
aF0.06293797676539864
aF0.07699815933057459
aF0.030578532495843764
aF0.04599271849843046
aF0.08169440414086664
aF0.031514681254148115
aF0.043302565792385665
aF0.03981784059582083
aF0.03614072971228223
aF0.029084552523500635
aF0.04328694429463056
aF0.053154193567189825
aF0.04332887660050015
aF0.059428904354505714
aF0.028211676796288894
aF0.047610303639699425
aF0.04992798786566234
aF0.041723694912251134
aF0.06273084099967108
aF0.06205566600239239
aF0.08095000561086872
aF0.045451160949093954
aF0.03328717897487044
aF0.05061322065556352
aF0.07031927106760873
aF0.04372114059821878
aF0.04193344075929621
aF0.06177951358375052
aF0.06669547371483409
aF0.060739146591312826
aF0.06555562889652973
aF0.031032600314516136
aF0.03170596621805903
aF0.03211237848112411
aF0.03600355447592386
aF0.06360005301031019
aF0.03950439305168589
aF0.07099050865796844
aF0.05099793224791748
aF0.035115157015618625
aF0.033042677567144546
aF0.061741283869407707
a.