(lp0
F0.05096881805865908
aF0.04768221782572079
aF0.04541020273510087
aF0.05484569654049332
aF0.06595785212376361
aF0.033485957681586714
aF0.0042731410572961325
aF0.06744680029031538
aF0.023550724923755668
aF0.09627801980774234
aF0.05088462574843373
aF0.04253039951915386
aF0.06142125537944559
aF0.04192775061183025
aF0.06587508994729475
aF0.07057864431517619
aF0.0698945406074536
aF0.05600817336414738
aF0.03576773155756599
aF0.06173400287263976
aF0.03350945002183405
aF0.07267597181770441
aF0.07988895400077611
aF0.03590738430267861
aF0.047781863222686835
aF0.06062973461165375
aF0.05971509506025726
aF0.06620083717332857
aF0.0853672487094897
aF0.06709525083025583
aF0.046897273659957314
aF0.059970170020622965
aF0.08081564966255084
aF0.03966245447505948
aF0.05493240596574746
aF0.05621876601621277
aF0.06779541418674431
aF0.07081036735719339
aF0.028066067679922285
aF0.05634037541587697
aF0.041065973037257494
aF0.08076963863101345
aF0.04394929372413587
aF0.06625228369936575
aF0.06652625115997997
aF0.08814460421645726
aF0.06569158179079021
aF0.07804748717522678
aF0.036959093794730384
aF0.07996070681436544
aF0.06170997161152743
aF0.06506441455221786
aF0.04278385927484945
aF0.08609029834647575
aF0.06738667293828329
aF0.04894926950222783
aF0.042073966431129727
aF0.03859692030156547
aF0.04525024386031899
aF0.04811081211067872
aF0.07651895808608403
aF0.06984956683869536
aF0.05764030185134076
aF0.06588826738773715
aF0.036978955434668406
aF0.07950959054508287
aF0.04044194215588245
aF0.049313701431485314
aF0.06177405854046152
aF0.048723189862285965
aF0.07777985274702269
aF0.037633595326560076
aF0.044968693031991726
aF0.07362107206067878
aF0.06621397684600236
aF0.04164587253379233
aF0.006946192585966348
aF0.05552948624029306
aF0.07809525816877014
aF0.06411800327549966
aF0.044705310316073006
aF0.002813257702660005
aF0.01318154668042045
aF0.04007384915885849
aF0.05947876845629385
aF0.04975640010858325
aF0.055013939237051585
aF0.0962140438296634
aF0.041766434396373016
aF0.00812740964221358
aF0.08993720106377649
aF0.08433122694478912
aF0.10946651124154783
aF0.06433884048758304
aF0.062621703350434
aF0.026816966451063608
aF0.04444869795360582
aF0.058274444523697816
aF0.058517589732006554
aF0.024425584928972885
aF0.05032631688321121
aF0.050491468737620775
aF0.054840235359571866
aF0.09276408073606136
aF0.030226234023284768
aF0.10276027099699062
aF0.04902468071132039
aF0.04830980968097566
aF0.0705499703428082
aF0.023575058649869734
aF0.08187453633977838
aF0.06356168895585537
aF0.096359745256121
aF0.07461632170970388
aF0.10360789217434208
aF0.053239580692541394
aF0.012225864478475418
aF0.011397078512101729
aF0.04395634918235601
aF0.03623747482654826
aF0.0325277386286361
aF0.06776531471647537
aF0.03921706003806164
aF0.09104878920261775
aF0.04203353129390758
aF0.05648870184815377
aF0.02719183354327408
aF0.08221163954895422
aF0.06842085496009537
aF0.04892435641436289
aF0.07853162581576709
aF0.07934812086736297
aF0.06797548522859725
aF0.07639316035049297
aF0.011950632853391341
aF0.033413017367187776
aF0.06477864102298574
aF0.003114186440573311
aF0.0700261312370748
aF0.044764386824830284
aF0.0752281383209392
aF0.0829779104273817
aF0.050831267055865666
aF0.04642645297654489
aF0.06590237991462392
aF0.06115527600976915
aF0.029437492498357438
aF0.054855668922728903
aF0.028574992888091195
aF0.030211962111330162
aF0.06457692310814271
aF0.07206009579827136
aF0.03537733416119305
aF0.043461156872076676
aF0.050286513346241936
aF0.04095088729835964
aF0.0394626845675481
aF0.06823211219202023
aF0.04592008648170884
aF0.05023943063672387
aF0.05697469575810541
aF0.03954614050492059
aF0.05456074028220873
aF0.07592069910552628
aF0.0725075525808757
aF0.050779949689736106
aF0.05199644657066335
aF0.04641450900955186
aF0.0402027670051328
aF0.09598365791956283
aF0.021394182792353653
aF0.06878025565845453
aF0.10194857519548936
aF0.04659660588200987
aF0.055501685133832565
aF0.049430362489934564
aF0.04546055502969363
aF0.06285299166605336
aF0.06483872842642624
aF0.04439535490977316
aF0.06630313388794822
aF0.024840198779160574
aF0.08124716522935155
aF0.0732501382653396
aF0.04220803223325443
aF0.03894637441108581
aF0.10240250727913636
aF0.047451657401791233
aF0.05037135386701503
aF0.051416076094344225
aF0.04153998310677902
aF0.04041820492515289
aF0.06946908861197759
aF0.04068863244397724
aF0.04543430413916052
aF0.10676542816980247
aF0.0725322366812361
aF0.06627116674025466
aF0.06602848330742153
aF0.09734208561939973
aF0.04454474979607674
aF0.0683237248444489
aF0.03231842195365549
aF0.12175759955643473
aF0.061635598732599925
aF0.14499086626886046
aF0.024899093401280138
aF0.06492508668671458
aF0.01801565157498414
aF0.06152157689860815
aF0.035501053053197305
aF0.04047177438630491
aF0.0710017562206796
aF0.04686924031016993
aF0.06238009191214992
aF0.04522007925788674
aF0.027531384785151047
aF0.04797912409495889
aF0.04455447764684835
aF0.0515342868909774
aF0.00993115685750755
aF0.05356363379462048
aF0.07357640419384344
aF0.016944324171644997
aF0.06993623134222673
aF0.10137094274508118
aF0.08732130456945988
aF0.021618688914202638
aF0.05945277295213146
aF0.05545471408049077
aF0.020697772115390357
aF0.028909243750171714
aF0.06840953455943147
aF0.010344110878619568
aF0.0631731083786784
aF0.06166255582580239
aF0.10028185838301318
aF0.0658354345905345
aF0.09300551220244876
aF0.07677312835361672
aF0.04298616216266613
aF0.0706734967635378
aF0.0721062784130997
aF0.06897181870691785
aF0.04151988901933777
aF0.04259126443365038
aF0.042595701253666386
aF0.027158846391034597
aF0.030521328725816303
aF0.06686254579236442
aF0.05513049064947195
aF0.05682120018014061
aF0.0793144535641601
aF0.04441594286058133
aF0.03574784128310113
aF0.04390190277011438
aF0.03144872577439581
aF0.009018996831728594
aF0.0475987293585783
aF0.07467451698618151
aF0.07905732492607517
aF0.04707352998913993
aF0.0639230315108378
aF0.017442675487050727
aF0.03580104672174169
aF0.05201500959699315
aF0.07908606950928516
aF0.06014475691333167
aF0.08964662925031885
aF0.04064765329789509
aF0.04897306442074097
aF0.02259136783457749
aF0.045806305650637945
aF0.03904860680888144
aF0.037717206420455805
aF0.049248206397040376
aF0.05358500838772978
aF0.05669005460402079
aF0.048476660236094024
aF0.032511364495190515
aF0.07261659205916036
aF0.04483987027973977
aF0.04973619109098229
aF0.09004974823002469
aF0.04848240518628047
aF0.04716028166492532
aF0.035102208151839585
aF0.046048946111470514
aF0.02637138307829116
aF0.0052435488168938015
aF0.10198687153963958
aF0.04490112832354325
aF0.06819625889833844
aF0.038404658751858535
aF0.06212259910312875
aF0.07565620744027532
aF0.054241709785400154
aF0.03471326703817165
aF0.05141341625289863
aF0.004380014479143514
aF0.10750207141513625
aF0.05307868562785912
aF0.05330426922813577
aF0.047757599668326434
aF0.08779583516035581
aF0.07627874976800308
aF0.08252982501496182
aF0.06879201909548323
aF0.0390155367066315
aF0.053342034252480214
aF0.07614348578551475
aF0.06503757218698868
aF0.03923598440966829
aF0.050880168955754826
aF0.08833472344419871
aF0.09040671871868577
aF0.032873752793937186
aF0.025603577468309147
aF0.05416354695641827
aF0.047056233298585375
aF0.047032749998657
aF0.053410134836800044
aF0.03421173523519262
aF0.07760905412984091
aF0.060966339241668374
aF0.0761277060512981
aF0.02794019018617452
aF0.052536695968212026
aF0.06290110080531762
aF0.04425917346203957
aF0.051737192552726366
aF0.0405964771490498
aF0.044095192687117514
aF0.023753698593393532
aF0.05066644556702341
aF0.08506971526852819
aF0.04791493000073093
aF0.03721276521682139
aF0.08727527519058172
aF0.08372316172458007
aF0.06321829532542304
aF0.07480745738648542
aF0.05841128802036758
aF0.010182183153635642
aF0.08763901988118089
aF0.03051436032465947
aF0.06878717322170676
aF0.044444773134178106
aF0.047236585438868724
aF0.06127493414446463
aF0.05936773152152435
aF0.05551402716701629
aF0.031123258062538975
aF0.05443135695789973
aF0.0559637008675385
aF0.09845033807776811
aF0.04957786036420547
aF0.05871191646496307
aF0.06218323511636324
aF0.10500029393827232
aF0.01081037846248656
aF0.0912612673653664
aF0.048861536724879945
aF0.04390243977735332
aF0.03918524084759286
aF0.03887848832706261
aF0.03196479162776918
aF0.03381903009585182
aF0.06630613752253049
aF0.05573300087406925
aF0.051038041652083144
aF0.03153170512826025
aF0.012111657168199463
aF0.03935841669153074
aF0.047605702315057355
aF0.045781913468473635
aF0.06482077693075672
aF0.05699344792747022
aF0.06901123259854684
aF0.031022863166663635
aF0.06658023538617623
aF0.0918383692224313
aF0.07133209254779817
aF0.039911688556270634
aF0.035727939896987325
aF0.007237211826449737
aF0.07350764323230499
aF0.044952007472762706
aF0.0571175482142654
aF0.024699970689855993
aF0.026828619022856617
aF0.022260229717175773
aF0.04611708989794125
aF0.04410154410399394
aF0.053774146343174525
aF0.07189163072650444
aF0.0557639154813356
aF0.04377983259884455
aF0.056548161373692604
aF0.047458291979480045
aF0.08004353218404306
aF0.06451239658464818
aF0.02107920046108751
aF0.05831598239684862
aF0.030315548475916734
aF0.06672284550218842
aF0.052798573544702215
aF0.06814893405502617
aF0.05410161428008622
aF0.06239029644247501
aF0.08248245229131516
aF0.04977227985023631
aF0.04691799141716975
aF0.0558842120042235
aF0.03459379528248555
aF0.04739033607236329
aF0.07246628032244395
aF0.054087904739964894
aF0.0671814470252478
aF0.06809824317590958
aF0.061546690853189534
aF0.034148766396396815
aF0.09076138862249725
aF0.06563139525098186
aF0.04123219556050974
aF0.07737387470787072
aF0.05444823183943861
aF0.02161269669591684
aF0.08485020202898176
aF0.052382636432221685
aF0.020279144544380213
aF0.06289980787239118
aF0.03519064198859129
aF0.07328335644851404
aF0.05297519136623516
aF0.05302672728616507
aF0.09840250251570377
aF0.027395032345017074
aF0.04090604844249123
aF0.08827466054852182
aF0.05549252818098051
aF0.07910508691686582
aF0.04142465035863332
aF0.05596698314053131
aF0.07023086518590436
aF0.01699813489492466
aF0.0634298966263916
aF0.061979076822006686
aF0.03343293226835277
aF0.04435267879505678
aF0.04956048283362391
aF0.005289755163537833
aF0.04625116370384948
aF0.03979787124826868
aF0.04291296712081258
aF0.05943693275188732
aF0.0816933229181023
aF0.06688163695194167
aF0.09135016573709008
aF0.006761601879735288
aF0.09614292733714598
aF0.02500522521685882
aF0.04526361088859715
aF0.06944506497216021
aF0.0739982213408017
aF0.062270278765863364
aF0.05156053949253547
aF0.08783848368375512
aF0.05128061366013146
aF0.06085601203458111
aF0.0725098733175065
aF0.014952245039033668
aF0.03919330598629439
aF0.054928089749813905
aF0.014791910077848889
aF0.014932595047390789
aF0.06281668093161191
aF0.058456486231281045
aF0.06436738949813155
aF0.037574038689796856
aF0.058581997150327574
aF0.07883239988099097
aF0.059281858337579194
aF0.05319213534059718
aF0.039916783881115525
aF0.0634495240216333
aF0.05098842182047278
aF0.011336337735021133
aF0.08976085306689077
aF0.05211509822425777
aF0.04029890453511271
aF0.059156797941292964
aF0.07985127738438368
aF0.058142022864001684
aF0.06945007846669429
aF0.09057497587198503
aF0.07735070463852052
aF0.020195753726621163
aF0.05182558863121538
aF0.03183019746145025
aF0.06738835339963054
aF0.02413201235763484
aF0.07053448123053692
aF0.005182329496826967
aF0.06459581649511964
aF0.0423828803606942
aF0.05274393632059262
aF0.04420222531691087
aF0.11425160111084168
aF0.05554459400040944
aF0.04184709143784258
aF0.015742213623896575
aF0.08531669086281095
aF0.04999028019256399
aF0.06471441597933417
aF0.06135468683797466
aF0.11914259890805262
aF0.07391943966420503
aF0.046054740604483634
aF0.06814852356517508
aF0.05997695229617997
aF0.09463262468089173
aF0.0500174326630193
aF0.04243561646767132
aF0.039496045262211094
aF0.04204924142208329
aF0.06993935553427491
aF0.0535864997569932
aF0.073786349288369
aF0.09617282950780741
aF0.033034553408420035
aF0.04164333801204579
aF0.04173752106900918
aF0.07533345475700065
aF0.0428718310203916
aF0.022562031038412672
aF0.08261547454305222
aF0.007476646262134095
aF0.02136484646112542
aF0.0714574205617146
aF0.06670614820700606
aF0.03683849982140251
aF0.04493473167780538
aF0.08983581429005418
aF0.02763151288241
aF0.06761164928626395
aF0.11196713967492777
aF0.09097521474949895
aF0.039561266457216915
aF0.029486661924703294
aF0.05328562756081586
aF0.03730194519921888
aF0.04371857275581423
aF0.04752342392658443
aF0.04859276827564991
aF0.061763988335238336
aF0.07612074246651189
aF0.046277136372261385
aF0.08869918334426853
aF0.14658428680700222
aF0.07137493558533352
aF0.010881532553362048
aF0.036709669999795067
aF0.05848182881854288
aF0.0630653793142198
aF0.03772258256045005
aF0.04784130849639038
aF0.07508280107411228
aF0.06315514886745403
aF0.07433434317740549
aF0.053623489917664954
aF0.03828884340567911
aF0.08946755941176258
aF0.11063067610418356
aF0.046983516851004783
aF0.03494322858906855
aF0.0706035747210379
aF0.0411623163606822
aF0.02465566650737286
aF0.006053550687652684
aF0.04418664331208977
aF0.05021039107957055
aF0.011730919308236597
aF0.05788014587115358
aF0.11004842951084018
aF0.04073147485597001
aF0.0436605074050962
aF0.04718541072565559
aI0
aF0.06883846327056425
aF0.06546272223954037
aF0.06841187626563061
aF0.0729564667308653
aF0.012599664824185038
aF0.04321188327788584
aF0.036915915929058386
aF0.005168991001726054
aF0.011554961243935553
aF0.009675267094599031
aF0.023362212792251414
aF0.025977593619861072
aF0.0414829317128018
aF0.060935807509287156
aF0.08398845443952556
aF0.01584141793725947
aF0.06138986269440549
aF0.0722149615841983
aF0.0532519132974657
aF0.06376506659744466
aF0.045260296486913834
aF0.05616435862726639
aF0.06875803643797981
aF0.059954695138430096
aF0.024767069315799497
aF0.05839580904775171
aF0.049809307365048135
aF0.03379831073925803
aF0.049107474066828354
aF0.03934861736819639
aF0.025152518320838632
aF0.05932930084283527
aF0.033000477090500295
aF0.03685442723566812
aF0.03367838285545748
aF0.09082156386449065
aF0.05008185212316239
aF0.049807277005966995
aF0.05539636689492262
aF0.06476824873791952
aF0.08508632915739928
aF0.05214498201522212
aF0.055109832738170085
aF0.05772121777669549
aF0.06355688015774458
aF0.012441717941945237
aF0.06792305706121839
aF0.04589942645991818
aF0.05494122609185538
aF0.054939633956610945
aF0.12080791977104208
aF0.04724195814669491
aF0.08432795902784572
aF0.058401835306395686
aF0.0783895818957321
aF0.0441022502751907
aF0.1193433807382766
aF0.060183476964862766
a.