(lp0
F17.45640634729327
aF19.950266871899537
aF26.646962436333872
aF27.531587100022758
aF20.744455962964455
aF26.16614584712283
aF24.281734541118457
aF22.55014437470891
aF20.404775190051016
aF27.25389904262128
aF28.711816382412966
aF24.271617337339464
aF37.32059921490946
aF19.020614776979457
aF21.26737644305124
aF20.137180791176085
aF26.36304507180256
aF22.028406184442613
aF36.932923727635334
aF18.302680419083902
aF26.826880654177923
aF21.804089063983508
aF20.714490906691854
aF22.74377919274414
aF23.61193400280142
aF25.04644999725052
aF21.126261228097405
aF38.891727133088175
aF18.560697280316635
a.