(lp0
F0.035890592754296104
aF0.021765152543121016
aF0.023780746324331373
aF0.01622713206127108
aF0.04432901677422675
aF0.021146364527573815
aF0.027975211404779446
aF0.024967917444624906
aF0.021834162587938175
aF0.03448509418005236
aF0.009688510665383135
aF0.008337964213449085
aF0.017669093032444284
aF0.008323128243732202
aF0.04101917136170938
aF0.028511610236713114
aF0.025759645925972133
aF0.02125074038022785
aF0.017535639516057796
aF0.024125167287521274
aF0.02703709774399587
aF0.024211832016489486
aF0.008253128372605518
aF0.013061356866131814
aF0.009473919425674611
aF0.00932582284938008
aF0.04340648744994396
aF0.03831373112222329
aF0.04521811257082253
aF0.01664415056546902
aF0.021506901329976357
aF0.01614129884686536
aF0.020167074791144234
aF0.028515329588159107
aF0.009371685882050614
aF0.015303792173893056
aF0.014803924822980725
aF0.010217590019871353
aF0.005350427204959486
aF0.04283027288745032
aF0.04337542865578158
aF0.03289485622089924
aF0.018005938911463175
aF0.04914099766564974
aF0.03453657907546397
aF0.040145495144071286
aF0.05437423661282904
aF0.03383621662306429
aF0.04380588811832685
aF0.03541249495620701
aF0.03898790322234206
aF0.024161816712421035
aF0.01813743872761316
aF0.028536578779232637
aF0.011638509955222129
aF0.023303787109032296
aF0.05614148942738008
aF0.006361745014901749
aF0.012896508534629227
aF0.030955505490454015
aF0.03203648391786631
aI0
aF0.03972860326722851
aF0.03208315145399059
aF0.03252291393662077
aF0.030253013970237053
aF0.020038521471600547
aF0.019837478833958776
aF0.057304683013619476
aF0.010885825420609107
aF0.02664944164256169
aF0.022105792528099653
aF0.01192040603144252
aF0.012504514899182362
aF0.03941133727961364
aF0.02084616983489833
aF0.06721122410176279
aF0.056964515467373494
aF0.008870668235377736
aF0.016641296488742643
aF0.039220729776427966
aF0.05327678970781725
aF0.019318983177899277
aF0.02137872339829271
aF0.003228867145285873
aF0.005137334358965926
aF0.029337243049987298
aF0.007944059036164321
aF0.01937754774597261
aF0.03000860540932035
aF0.0507713523145368
aF0.008043934939491891
aF0.06455528463297706
aF0.00632980995722865
aF0.028418900697266443
aF0.028016061295563804
aF0.028551133358721194
aF0.02502427699821054
aF0.010917321850121477
aF0.010735586011848288
aF0.016125473970812043
aF0.03512371973969347
aF0.04473138190849314
aF0.016731223391979064
aF0.002609769306070985
aF0.013672142854812368
a.