(lp0
F0.017110750299927615
aF0.02713039109355378
aF0.023151223225937212
aF0.02929210306764285
aF0.03779753117055698
aF0.03148283969934983
aF0.009003962787460146
aF0.039202353795737103
aF0.01640449336375636
aF0.020027976827718952
aF0.01986202772383473
aF0.009287817844518346
aF0.026123253386578473
aF0.041251423751974936
aF0.015538287995071518
aF0.010466397370248499
aF0.029876208937562033
aF0.01958895328526597
aF0.027635190970344913
aF0.041045085293698304
aF0.03520332197550157
aF0.0414806746919914
aF0.02695334244836556
aF0.023921502112140808
aF0.027747356455436637
aF0.029699821351353295
aF0.031052077573185264
aF0.015908156450926338
aF0.03659699764933734
a.