(lp0
I509
aI523
aI463
aI282
aI503
aI84
aI435
aI467
aI401
aI288
aI466
aI440
aI280
aI338
aI468
aI621
aI603
aI228
aI496
aI292
aI366
aI634
aI433
aI304
aI574
aI601
aI584
aI487
aI282
aI504
aI538
aI403
aI402
aI639
aI126
aI510
aI487
aI442
aI286
aI382
aI253
aI269
aI444
aI118
aI289
aI259
aI590
aI482
aI108
aI431
aI349
aI244
aI821
aI428
aI266
aI503
aI347
a.