(lp0
F27.399872678165256
aF29.573088649293812
aF25.261632126539403
aF31.745421290528867
aF37.27554259405479
aF17.75812877826558
aF26.840442856091418
aF28.074761014781274
aF21.542979662550323
aF21.38954683897519
aF29.795591495858893
aF37.10460106520335
aF20.859107755632504
aF25.919559977965633
aF34.385976478758636
aF29.03477334625567
aF29.661537363965223
aF31.883914211668685
aF26.54520866420443
aF26.691748990062145
aF28.455842817333778
aF27.537452993320453
aF23.664160218713793
aF21.295706937899908
aF26.186296392832805
aF26.98710899292482
aF26.508466399475644
aF24.40328329281856
aF31.567128649240782
aF22.11590670228817
aF28.941549480550623
aF23.75579941752578
aF23.836817159143827
aF24.88047559652216
aF18.38835251525811
aF26.846759385038645
aF28.943530727064868
aF23.921690596463037
aF30.835531092611518
aF22.65672867955586
aF24.030681834624477
aF20.828518832375376
aF23.8555219078086
aF22.030535014680975
aF25.338525993002058
aF20.060035175114912
aF23.98921151773055
aF26.635951969095494
aF21.290248068944166
aF23.17427933275068
aF21.469893069908007
aF21.61288065470047
aF34.50917209512917
aF24.80981115071121
aF21.522501306150133
aF37.507818250280046
aF22.64660293038675
a.