(lp0
F25.468167983472735
aF22.914398845537512
aF22.942915273972854
aF22.353559313485334
aF22.205605173491445
aF22.11406038517728
aF27.94901282700779
aF32.24081305328469
aF21.734111563521097
aF25.34933640655277
aF22.386853332550142
aF23.90760848490357
aF28.938756186726476
aF20.535274893644516
aF24.74615494430314
aF21.994616645704166
aF23.09358738337976
aF21.560433633109636
aF26.735952953162432
aF21.516339629526065
aF31.29770160083177
aF26.49190150821785
aF25.070743711198787
aF23.50352876223211
aF22.338094586328456
aF25.500937570353848
aF22.061689174936422
aF21.909573693887836
aF27.408986710353897
aF27.91131727390078
aF22.00251558448629
aF27.811643656766798
aF24.905787220855018
aF29.65524280135997
aF21.575253197402827
aF24.530397176651316
aF33.74277708804237
aF25.210808728613806
aF20.828518832375376
aF32.35239505566151
aF26.8406284983113
aF22.139193023138077
aF26.251347850500803
aF24.464373426967107
aF23.012419231909444
aF23.730744877433267
aF21.42642237849925
aF34.50917209512917
aF24.41578760892892
aF30.003152779417064
aF26.336866374479452
aF27.27198085022497
aF26.75145900965283
aF23.22847652024889
aF21.84512001212675
aF24.342543944634063
aF26.79668557925588
a.