(lp0
F0.020168939000066236
aF0.06503363567127594
aF0.048115306580065346
aF0.022134305775290516
aF0.06042464838696853
aF0.04938535096800755
aF0.06227803365009301
aF0.030270644159408056
aF0.02132341854214615
aF0.03355109920073568
aF0.05113284082052835
aF0.03220058624817047
aF0.02996823861814037
aF0.08158126757639529
aF0.03469526631439231
aF0.01842262608895281
aF0.05710587665933979
aF0.024389617681077422
aF0.04980319363324332
aF0.055582767098891074
aF0.01635422187208767
aF0.04989928886062768
aF0.03651830676301646
aF0.05051759239593705
aF0.06005330006193425
aF0.029927092193324487
aF0.06105473138195963
aF0.020310831215134533
aF0.05193014695441376
aF0.0452063047116294
aF0.059235370995775666
aF0.06307686592042014
aF0.06234363930074555
aF0.023768914740253902
aF0.05050582853214826
aF0.030767232306847775
aF0.04837973397632894
aF0.029649793822984057
aF0.054509027781019355
aF0.03381354473211577
aF0.04987258335050448
aF0.04599257618043794
aF0.05239588275947824
aF0.04332120533535916
aF0.04737935362760225
aF0.05737822245899049
aF0.021490589477428115
aF0.027968783566870884
aF0.055610090658285524
aF0.03074650907294074
aF0.05262307781547917
aF0.05726536071882041
aF0.038036542819574845
aF0.058987514776973435
aF0.029156097767251393
aF0.038505124865511144
aF0.027107123009325124
a.