(lp0
F24.156323355120694
aF19.408393115955835
aF21.270580544641522
aF18.03509798927396
aF20.308302625503938
aF16.868750936975133
aF14.629000723018777
aF24.13240461968363
aF27.30890787513207
aF36.76414572953059
aF20.2876377245858
aF22.22474089675221
aF28.425864425103676
aF20.9833933467223
aF17.87209977036163
aF20.360720045310355
aF25.565581526528202
aF20.84344033552006
aF21.329203332852167
aF20.958718049025236
aF22.765187691881305
aF24.836769170506514
aF27.030659117824488
aF19.826189590061357
aF25.935601262179798
aF24.653189609920336
aF23.38715996602565
aF24.612869295926526
aF23.55939397679236
aF18.493614178762666
aF21.28764090244935
aF18.79134103850696
aF23.692428877758378
aF25.14459700229237
aF19.788404254881797
aF27.058791071224785
aF23.383808835106038
aF22.244293328893356
aF21.587876409790358
aF23.92277129570304
aF20.96858656558223
aF21.85848721612569
aF24.205266072693032
aF18.00923871203508
aF18.725826162527827
aF24.50837080789134
aF27.047110559505715
aF24.39105496173816
aF26.726591807626058
aF20.109816592668427
aF17.715900854964993
aF24.300887353996753
aF28.427095332288182
aF24.644790351224085
aF20.70096921746253
aF24.92061852429875
aF20.598043696119806
aF25.430091126701445
aF23.054469332646043
aF20.8018931973338
aF21.893968722107264
aF22.38265768569192
aF22.202000381160786
aF17.102180478306973
aF21.650253077952723
aF23.218367787093687
aF25.02459672635667
aF17.245101686606034
aF17.82186490092988
aF17.973276818312588
aF26.755922263645303
aF16.974815021767604
aF17.97524321914366
aF19.07081001350423
aF28.07094661439756
aF25.06913857661785
aF20.853318461364186
aF24.92885504123104
aF24.385320936007126
aF18.003261648950716
aF16.208970567086475
aF23.461609343456157
aF25.83250361069612
aF24.077597769005315
aF28.424139958859882
aF26.86602005138886
aF20.307091407087896
aF20.633158026871506
aF24.46176860454453
aF21.217774319456353
aF20.601601441660538
aF27.068539568598283
aF22.574511106089652
aF21.562694104536963
aF20.49347555549799
aF21.80942438309912
aF24.938057477834583
aF18.121129968960517
aF17.561565323246334
aF24.19850487801216
aF27.077523322386448
aF26.155911223497206
aF22.16321431092407
aF21.9372855027963
aF20.21710114731625
aF19.877123544578698
aF18.95210434787381
aF20.090398059018273
aF18.126163293684368
aF21.06151131434688
aF18.80634163802556
aF22.620968752140797
a.