(lp0
F33.27875538585331
aF35.114979924097995
aF39.4254335510111
aF36.93070321028469
aF25.201669420595795
aF20.373143341150065
aF31.52761117510879
aF23.463207841860534
aF34.4782795965749
aF39.53532040877172
aF40.46349859089746
aF20.03769737145479
aF26.623440920403656
a.