(lp0
F0.05795184898280476
aF0.0481151158119937
aF0.030066043327192978
aF0.03327785356432282
aF0.040370075893892965
aF0.07452708510805775
aF0.05804854351597382
aF0.042041809777718674
aF0.09128991971469899
aF0.03429081934607012
aF0.041852289102700425
aF0.04050382412424238
aF0.05377880508219187
aF0.05522913339786609
a.