(lp0
F0.027348954902675898
aF0.04229028845047333
aF0.03411405030451194
aF0.05806065666830374
aF0.037852742234725234
aF0.035485083092489246
aF0.03702634062061358
aF0.05147356594581424
aF0.04724523597458591
aF0.05729253239295683
aF0.03648523167983006
aF0.048531047703229524
aF0.035804412886554816
aF0.03871293997100009
aF0.02553238722753298
aF0.05450902778101936
aF0.04127646589862213
aF0.05498714545190825
aF0.04810405557100177
aF0.027968783566870895
aF0.04273349188046466
a.