(lp0
F0.057985712685506036
aF0.06594943600793772
aF0.04969316666756157
aF0.03954442759206451
aF0.05723446315109586
aF0.04444986796954887
aF0.05683001779905798
aF0.04111700077448579
aF0.03413440384491857
aF0.06800278579929554
aF0.0491139343474669
aF0.04578493551948086
aF0.06067012684101213
aF0.023410474272692855
aF0.04496436208935162
aF0.039824992024005766
aF0.05094884461233015
aF0.058203212077923186
aF0.07767042832733353
aF0.0652551451846074
aF0.04763243976985623
aF0.05539792341733096
aF0.07067575537013444
aF0.05427237101862871
aF0.05540265544349281
aF0.07027662476750864
aF0.04071173020377462
aF0.054964867176047025
aF0.05701434950262671
aF0.05703172553582488
aF0.06524219392413744
aF0.05980512332644585
aF0.08505763148510212
aF0.06342198455394848
aF0.058478103466739796
aF0.06316861174689925
aF0.08581914209281102
aF0.0619853571544394
aF0.05632905638713751
aF0.04703781122147573
aF0.04569736443635083
aF0.026282171413398562
aF0.032033811449661824
aF0.018982181318829706
aF0.08221140548683842
aF0.012307643736171459
aF0.06530287520088032
aF0.06104008758620099
aF0.08009935633750169
aF0.050262705015462816
aF0.0895691336658084
aF0.05249631908303285
aF0.0675202627962315
aF0.058856157311512176
aF0.04351207130681266
aF0.05462607366191563
aF0.06977770304721546
aF0.05834158343753037
aF0.05759957723338066
aF0.05613598691412451
aF0.04114613291079306
aF0.06577142834137066
aF0.06887695669886974
aF0.033062066140678074
aF0.05981209613243225
aF0.051245841803705124
aF0.07545723500473638
aF0.07680629632654792
aF0.06699007025773426
aF0.04772909506885134
aF0.10192842850731255
aF0.04575958811451871
aF0.04935070237931403
aF0.0729565916745596
aF0.04707161355042911
aF0.06577029181141807
aF0.05842744963419091
aF0.046262659333905665
aF0.029940963732105395
aF0.0745063307994805
aF0.03731916795516676
aF0.07452930677003212
aF0.06205937329887343
aF0.06145977810740228
aF0.0380247837270944
aF0.055993287324139
aF0.06356528192739731
aF0.08330840194482694
aF0.06954804455965626
aF0.0591162202552381
aF0.07619447577191879
aF0.06257390471823711
aF0.04048668170099265
aF0.05733778530539513
aF0.050402540340378325
aF0.043280645310439576
aF0.05634053494045946
aF0.05265456477540037
aF0.05949143533344204
aF0.06078646628593015
aF0.07416446273556149
aF0.018920594374819043
aF0.0720256806926007
aF0.0543271927268659
aF0.0581970938014571
aF0.05093497817088981
aF0.07760095820767259
aF0.07446242638493332
aF0.05540538930563215
aF0.056373196834123514
aF0.08188548250520455
aF0.04782779689831859
aF0.04899832410200322
aF0.05416138669308272
aF0.04273085318347844
aF0.059672173281718054
aF0.050715274355546514
aF0.04848001368627148
aF0.029255076187199774
aF0.04414940253208289
aF0.043578661188141035
aF0.052596953428469345
aF0.0425474119986078
aF0.09306474441190139
aF0.04831869636535206
aF0.07254188009442952
aF0.05540201977264165
aF0.04932911991744793
aF0.07112786214770264
aF0.05583760945055973
aF0.05290093677624711
aF0.04119942384915324
aF0.03510329006098855
aF0.013971377825305626
aF0.07494151641694628
aF0.06941618046522564
aF0.08873524987012445
aF0.07537796827429534
aF0.08130175596769915
aF0.03759240433626345
aF0.036697650290242335
aF0.028446421152378894
aF0.05337749723502846
aF0.0736250106555615
a.