(lp0
I208
aI431
aI338
aI313
aI501
aI448
aI559
aI337
aI324
aI514
aI355
aI448
aI423
aI284
aI466
aI323
aI517
aI239
aI511
aI298
aI439
aI470
aI445
aI474
aI260
aI498
aI500
aI325
aI530
aI679
aI504
aI558
aI558
aI479
aI298
aI467
aI308
aI444
aI269
aI337
aI511
aI444
aI728
aI614
aI340
aI517
aI313
aI821
aI483
aI404
aI497
aI356
aI435
aI517
aI355
aI294
aI455
a.