(lp0
I754
aI756
aI292
aI486
aI154
aI586
aI755
aI466
aI754
aI473
aI621
aI372
aI487
aI269
aI599
aI754
aI487
aI267
aI754
aI334
aI257
aI668
aI477
aI491
aI217
aI85
aI403
aI653
aI298
aI286
aI223
aI398
aI478
aI240
aI473
aI304
aI331
aI503
aI473
aI523
a.