(lp0
I971
aI522
aI561
aI363
aI498
aI287
aI684
aI325
aI1452
aI561
aI287
aI483
aI671
aI382
aI561
aI254
aI583
aI539
aI559
aI684
aI423
aI712
aI252
aI326
aI383
aI322
aI321
aI425
aI277
aI329
aI684
aI254
aI567
aI304
aI490
aI254
aI423
aI170
aI559
aI424
a.