(lp0
I427
aI381
aI739
aI589
aI614
aI588
aI736
aI583
aI746
aI377
aI380
aI994
aI378
aI373
aI400
aI1132
aI408
aI594
aI585
aI1119
aI329
aI613
aI690
aI427
aI588
aI689
aI661
aI388
aI367
aI691
aI413
aI585
aI1475
aI382
aI691
aI445
aI716
aI394
aI484
aI382
aI614
aI412
aI689
aI688
aI628
aI564
aI414
aI333
aI577
aI588
aI382
aI441
aI698
aI442
aI373
aI519
aI478
aI628
aI519
aI994
aI689
aI378
a.