(lp0
I260
aI570
aI385
aI589
aI614
aI546
aI133
aI971
aI172
aI465
aI354
aI395
aI616
aI403
aI471
aI725
aI665
aI469
aI527
aI456
aI608
aI483
aI808
aI587
aI698
aI454
aI539
aI502
aI735
aI600
aI447
aI385
aI703
aI582
aI652
aI1491
aI937
aI490
aI539
aI626
aI552
aI630
aI400
aI488
aI716
aI710
aI730
aI465
aI611
aI403
aI628
aI667
aI308
aI994
aI409
aI711
aI717
aI453
aI567
aI338
aI417
aI564
aI423
aI390
aI642
aI588
aI741
aI371
aI424
aI577
a.