(lp0
F0.06555266124507196
aF0.05859654707131363
aF0.05371351183239206
aF0.06525125951908664
aF0.02185042100508793
aF0.04754707322353275
aF0.046666420702251285
aF0.05320108595145926
aF0.10769661367008376
aF0.06008377818950587
aF0.05842980481444167
aF0.07072632615887671
aF0.059643964272824486
aF0.06289786295470873
aF0.10063776586935731
aF0.04856247487580662
aF0.05013177573929626
aF0.061990778605010524
aF0.028109584489036808
aF0.07324049403335312
aF0.03479698888588316
aF0.07073708622448512
aF0.053569005169964025
aF0.043748674370116945
aF0.07244667465224154
aF0.03674561942763663
aF0.07174187945382136
aF0.04907062357007988
aF0.05755182590323717
aF0.026946692181582684
aF0.016593854468949874
aF0.06418756446255162
aF0.07442454448902425
aF0.051655773906442895
aF0.06603388470098628
aF0.06290431101298427
aF0.06502219665305116
aF0.024818176837617566
aF0.043146345033029235
aF0.04891534579657979
aF0.05225876713228297
aF0.07428315631565616
aF0.07838865461127782
aF0.06257574234372229
aF0.07994826916822438
aF0.05951878760309374
aF0.053240652643024924
aF0.07396715107478075
aF0.027304287171272475
aF0.0458935932098511
aF0.05087678284307944
aF0.050469853387212334
aF0.0596569773455554
aF0.05734727480449467
aF0.04747235394966731
aF0.09598076112106729
aF0.06920332942795064
aF0.07126395851949975
aF0.03767624858555103
aF0.04551172520666393
aF0.06403206499159017
aF0.04987557679573602
aF0.06617571308146705
aF0.046180037084836735
aF0.047137898744972276
aF0.04284016113325503
aF0.030415794046010303
aF0.04925101665756259
aF0.07695929497865078
aF0.060909863223239276
aF0.08918438588443899
aF0.08560713401701321
aF0.04698230005257073
aF0.021819526507101436
aF0.04421208647498992
aF0.06999780206762105
aF0.055855196811635574
aF0.028448915243237623
aF0.04465222406571053
aF0.0065883067697766915
aF0.035738399165341876
aF0.03263784254904635
aF0.05178890732390452
aF0.08909830609503577
aF0.06993299289313633
aF0.054522044874748654
aF0.05866148120254427
aF0.06497108907357058
aF0.050412621062652214
aF0.07320950585922978
aF0.048667998227767933
aI0
aF0.010325511325259912
aF0.05631001842508938
aF0.05065937021069752
aF0.055030371427445386
aF0.06444743045169948
aF0.08620886291819545
aF0.05732546770948219
aF0.041722224633461424
aF0.06285162792088902
aF0.05406451392481251
aF0.04924133102891057
aF0.03931653708400758
aF0.019860296982016346
aF0.025278291489906544
aF0.08028647043851125
aF0.006441462660762735
aF0.008150943277536562
aF0.05431614090172919
aF0.05182328840179662
aF0.05370614029685613
aF0.03724288436606354
aF0.05262630664078087
aF0.03586315859960379
aF0.03389864400739761
aF0.08468531472612031
aF0.11683495377103223
aF0.07197738315831448
aF0.05609918977042641
a.