(lp0
F29.204566658905495
aF24.73412875337751
aF14.099371157042967
aF15.506345065150123
aF18.231703577904046
aF54.46073469405204
aF20.027915054766712
aF18.873254538621982
aF16.515907311542513
aF15.520812658585369
aF20.094229687298945
aF20.034390962562647
aF23.342360844379602
aF30.24867318425099
aF30.88826074481799
aF11.217976502711767
aF12.522297409681205
aF13.311762849888439
aF17.998516087011364
aF18.581209030210704
aF18.443782483351388
aF14.625514736463284
aF17.80756636055327
aF16.969187547285816
aF14.308552917862324
aF16.93921441274972
aF15.58543527998384
aF21.401195554802612
aF11.90291100419411
aF16.542893199047043
aF14.707252451706033
aF17.085167958089016
aF14.802137642478078
aF19.350815483565484
aF12.096064936250503
aF14.975800883459256
aF17.694464141346092
aF13.573535344134006
aF17.85575446034472
aF16.5571771410205
aF49.550579747649216
aF11.62486369420759
aF19.96720017805183
aF21.68913599622347
aF15.182295072586788
aF23.15092188343152
aF16.145860280524573
aF15.644564597276277
aF12.055082874529857
aF27.747892271406663
aF19.89693820792006
aF13.389940122927927
aF16.552335931391788
aF28.00596595264753
aF16.493669200987853
aF13.031847483007656
aF11.491476433956802
aF18.32121725543427
aF19.15045170625365
aF12.790528345326955
aF26.352158713218323
aF16.492086439577573
aF18.397720982801108
aF20.82448348748304
aF16.12172531903312
aF22.871254015285423
aF13.942341728090437
aF16.501732581186666
aF15.216111618788672
aF19.969852920841472
aF16.078899263718466
aF27.518933329638415
aF16.47827260594594
aF14.870114102691506
aF16.20717398552148
aF42.2415913838868
aF17.347065578602233
aF12.188874699355365
aF12.555340195560246
aF16.79181257525523
aF12.949065870851225
aF11.1606312626754
aF17.3649652175329
aF21.76154511071324
aF16.231820319948856
aF11.529566013775254
aF13.941479292397377
aF14.622216616032272
aF21.683968108389575
aF20.247549964724666
aF17.552969866443146
aF17.446924192378532
aF20.36224641000034
aF14.990847778869222
aF20.440651502851676
aF29.031191494813374
aF54.794039214078936
aF11.947873088876108
aF22.68645323836197
aF20.78667266564434
aF20.778410862337434
aF44.67895135512144
aF17.28046946877365
aF16.478005385899934
aF9.3542768285858
aF17.801491683072342
aF9.640308269237853
aF12.258549408013277
aF19.639712406472878
aF17.64439032312186
aF18.683122971299184
aF19.660863587038875
aF97.0588733866533
aF15.69589052151019
aF15.495137385816273
aF18.33540240545148
aF11.6846297936634
aF25.40441744712859
aF63.40781338657707
aF14.126444058526417
aF16.88273718046009
aF12.032986465221821
aF12.79430468640298
aF11.491624466196885
aF13.72492626016078
aF12.532395599875558
aF27.077886872305744
aF23.29038022421996
aF18.08040335982561
aF27.60374349137067
aF18.335864456525773
aF18.176551007723766
aF19.003750371580058
aF15.2299869337177
aF12.214627239747799
aF19.359104199248996
aF16.461086450240085
aF13.690754233672422
aF15.263806365652071
aF14.367802176202119
aF16.40335068485477
aF21.018606261904356
aF19.482178748498814
aF18.995440729694963
aF15.130398831069888
aF12.25758301817566
aF17.408237488754718
aF19.950077262834935
aF47.452531816371085
aF16.551052729825784
aF13.211416114121057
aF13.241694151451696
aF33.73371358267061
aF13.072951594721536
aF18.15215987960502
aF29.069495381901625
aF15.978216775419398
aF13.488842331611059
aF17.20398249298621
aF16.416771551303576
aF20.899781412299212
aF16.77919121473714
aF19.662009166634363
aF22.284041482844653
aF14.930089727556416
aF14.226201519783178
aF25.29210411514252
aF19.237842766980126
aF24.337516501647332
aF17.8414348575094
aF13.669237524637767
aF17.770357410622353
aF10.377183589491548
aF19.32245760738324
aF22.186897266697173
aF19.395761916413623
aF20.43532311197588
aF14.255461914316504
aF27.49464476608875
aF14.657384262551572
aF18.20912255735927
aF27.405837236573024
aF13.31946030883375
aF17.51440283566568
aF26.36392192944699
aF105.95063119969275
aF15.05368198621971
aF14.59667852624255
aF15.361441554368962
aF95.21542423294298
aF12.833488981583212
aF11.675026538964657
aF16.70941534048583
aF9.498742601551166
aF13.756037131928865
aF13.82942336850521
aF16.752836842751304
aF19.402860064971478
aF16.468813867966336
aF14.08038224461229
aF15.984990931121727
aF18.643920771285355
aF13.041569187204253
aF21.89736250723289
aF16.123043370282623
aF16.577002531253154
aF23.88731019155905
aF20.86395939138589
aF13.6451148158128
aF13.543947855491306
aF17.429179304396158
aF16.16523195869655
aF17.389325442751396
aF20.781899453220152
aF18.31806614393573
aF13.963306175250288
aF18.123992842850146
aF16.0487430829821
aF23.1119923468653
aF18.290128266248573
aF12.323518884929094
aF14.810647241106425
aF16.225433510885278
aF16.27117390230625
aF14.879141005217619
aF18.60462073232131
aF13.76971518603052
aF14.06023119505624
aF17.943147470346652
aF14.380107192670117
aF37.58492229264077
aF18.66522141567145
aF16.988331028752736
aF54.63471546634863
aF14.886065676511219
aF9.468592716607706
aF25.033615365371503
aF17.95356436743341
aF16.031733500037777
aF12.578590549525456
aF15.001706602679146
aF18.373648388894946
aF16.575192083691334
aF24.329871548531308
aF14.423494009915835
aF17.471303067784007
aF13.652813922916033
aF18.98984348898799
aF14.766243256221284
aF15.621965470488304
aF15.630814998284189
aF16.339866302765483
aF14.819962354033521
aF24.297483041599477
aF18.274602077058827
aF18.447012354557646
aF17.89422235024209
aF12.860456755267055
aF23.498285581195198
aF14.759560938988416
aF17.02707055803047
aF24.10253520997818
aF16.871286757816982
aF22.398509376919407
aF14.848663193751422
aF16.641572619215978
aF19.76912490574551
aF10.343164666238392
aF19.011472847380592
aF20.825048031911944
aF14.922853732854994
aF16.169306979712935
aF16.152893386935784
aF11.36535915874045
aF19.668680994063653
aF12.864267753284546
aF17.23352005218572
aF21.085584765728342
aF10.364896120691753
aF14.281078065636267
aF21.2544931409411
aF23.99884109268368
aF11.244800073722411
aF15.454588398803024
aF14.605223045619146
aF14.13177990926058
aF12.081610341486522
aF21.752115745841117
aF25.56301742497719
aF20.185477477343248
aF20.293495113402425
aF16.717749474162673
aF17.501499384435764
aF14.779084655864155
aF14.333336560502188
aF12.182623318420125
aF19.097297131744124
aF22.161882317753257
aF14.712179531834837
aF18.604412726338904
aF14.666981639054931
aF17.82078797950112
aF18.184505241242864
aF17.19143647663444
aF23.646426796783725
aF16.50266335731989
aF19.712775110454924
aF15.37408974558764
aF15.630499109268822
aF19.645777677324702
aF19.776715374222285
aF17.13636437712272
aF17.764595968220576
aF19.047124812138243
aF17.043891584283585
aF13.311775382739723
aF23.984306196660135
aF15.798706674328278
aF29.939977596421286
aF20.780323022676395
aF15.725642838763225
aF30.909654709556598
aF21.70517537444231
aF42.29003722534202
aF30.161916680086733
aF13.395880511205274
aF19.291755950985646
aF62.30715764406419
aF20.232354132566204
aF16.15825671004309
aF15.733124339408793
aF18.21152363159927
aF18.262014641334595
aF14.712744505835925
aF16.904379817582786
aF17.838091097043108
aF22.562098641926422
aF16.179658882422743
aF14.704894671867422
aF14.152485391196045
aF15.716459643593295
aF10.585485526257632
aF15.02031158823393
aF14.722023251217843
aF20.622105462549964
aF22.105841159109964
aF11.123831492251837
aF22.691225764519388
aF19.014304312168182
aF19.123238470068223
aF23.248677004284094
aF20.74183211234244
aF28.35700960055643
aF12.480798198676128
aF17.351169646263568
aF13.52342215666677
aF14.440945472143532
aF16.473933574923677
aF19.113991961865832
aF19.830667845071588
aF18.765189343368036
aF13.095976657533962
aF18.035615377151515
aF55.93138457370457
aF10.166336306534177
aF20.340586383580703
aF15.265383704722245
aF13.594106803791144
aF11.218757927548412
aF11.111632962098078
aF15.411296379790624
aF16.415547968199004
aF13.168341004453078
aF33.75068862406435
aF12.82051684823053
aF28.093623885104286
aF19.489709200043322
aF13.63701249135099
aF11.61053835933321
aF15.532783775527
aF16.00676832495157
aF15.94212214480413
aF80.11247928238424
aF14.989161198949505
aF23.529248632253687
aF19.71323428868597
aF13.376342308017069
aF21.383564157719768
aF17.373090697012202
aF21.100062702460328
aF14.445430902664715
aF13.563670615139507
aF14.925916147778002
aF24.031260610849053
aF14.357322787978054
aF16.354909832297306
aF15.892822496769597
aF19.02524720390215
aF20.45354907086648
aF16.509012132113337
aF17.68129770620102
aF14.70177305200134
aF13.520831519398605
aF15.490178611996246
aF34.27453527140536
aF16.30862441497664
aF18.736201100424463
aF27.94286404952602
aF18.76295380866997
aF18.601290912209016
aF16.039935146719774
aF14.456807765981216
aF14.55182530484336
aF18.482049233931725
aF15.114874138079758
aF10.244129363041885
aF18.46434522312773
aF17.896947567919334
aF19.265652404321358
aF18.510326941624996
aF20.611393221585903
aF14.555721062631985
aF22.011976373214413
aF11.710455397038684
aF16.506539774425935
aF17.651396497114114
aF24.653911720826628
aF15.870680683632342
aF17.39777186380855
aF18.92827124453965
aF20.32033639689091
aF34.846810515947894
aF17.449264914441443
aF16.76847494232241
aF16.49449030629967
aF14.10526319210834
aF13.64429265483529
aF13.393162749604498
aF14.69362499013106
aF13.22396310984216
aF15.376437201331372
aF21.63936257857858
aF13.096305534026145
aF19.848270543484187
aF14.333592484095863
aF25.221841230939038
aF15.366817162117817
aF11.21492962587812
aF15.27540914787937
aF17.19615898031972
aF15.207409776491513
aF13.578277305900311
aF20.254801449710722
aF11.816255018894688
aF15.976886842056505
aF12.129600150366766
aF20.923512172356293
aF14.761827077431578
aF28.465238281162435
aF19.89850833523047
aF25.38624634250834
aF16.147149237384557
aF12.336338098636306
aF16.051380096039896
aF13.496831798349422
aF13.650194169343187
aF14.391470077724437
aF18.08573082781294
aF13.039079220438435
aF14.852574496562843
aF17.372373934004283
aF16.844573889322135
aF19.149516249488563
aF59.487937551803434
aF18.064559413709308
aF14.239828809581358
aF12.062783747481323
aF15.867623544836874
aF14.895937661192859
aF16.226969526416987
aF11.708008692684318
aF18.536025622007397
aF26.432546572930015
aF16.91355646888949
aF11.635113603550728
aF32.2417263933882
aF11.630397624978372
aF20.030492304555054
aF18.222302953332832
aF11.865270886384135
aF15.907699249545765
aF14.91242244444767
aF12.850167894972081
aF17.85759875486765
aF39.64932147007759
aF13.914097851106188
aF14.031406715693793
aF17.107810829955312
aF17.082321415271128
aF20.94681460085782
aF15.381600950740916
aF35.46414311699236
aF18.077985477488408
aF17.003223358217628
aF17.56479536188216
aF16.38273919535221
aF26.71312403296804
aF13.947149203000011
aF21.301015238846336
aF14.76444762902796
aF12.99574863159526
aF23.259491433955578
aF13.596502329997186
aF18.550572719189727
aF14.091113009580484
aF22.0513306854276
aF18.791187922918965
aF15.793745617683225
aF15.838275741080794
aF16.311995217706112
aF42.96626299114862
aF17.784969380737877
aF16.54364480161815
aF15.586609360105621
aF14.401783301752006
aF17.91652318073469
aF17.259743989424695
aF25.369355214674087
aF17.392700378345996
aF17.669790897328678
aF15.70882558043896
aF14.788739769693901
aF12.394553515915142
aF30.24708422771171
aF18.470420108025074
aF15.638177856000722
aF14.342856787303313
aF17.747131762056096
aF12.099592127168018
aF23.64391650214953
aF14.023047899202615
aF14.809735867265333
aF15.213206063494974
aF16.623369910512103
aF15.173507612526976
aF21.30157691134527
aF31.104772137117184
aF16.91545961561797
aF11.839992482066528
aF19.832142109758266
aF21.790500058436404
aF11.26924407297518
aF16.950707185254625
aF15.234644340006733
aF15.022337821799375
aF17.29127609340851
aF16.613332378902314
aF16.764143541506545
aF11.276707348539707
aF12.67977725949264
aF18.013625380847454
aF12.43384348057143
aF37.73403616684097
aF15.242468766901757
aF16.998522888430163
aF12.099072938292627
aF13.819957555220048
aF25.494536184756406
aF14.213547084171184
aF20.21605199517227
aF22.014083854973357
aF14.178219160020102
aF17.946604985642285
aF21.783096431505438
aF13.72399231174682
aF80.77449935422754
aF22.690519542321717
aF16.955596458997977
aF15.681459944065915
aF14.425297459281076
aF16.33731308059256
aF43.144480648055506
aF29.51293804862404
aF11.603053543030208
aF21.509215994129562
aF21.440360802667136
aF20.401661259624028
aF17.20579862128899
aF12.711156001836487
aF22.332274577182712
aF16.455848611058027
aF22.764911003084105
aF17.53804991727512
aF16.495153519733613
aF24.59259150299767
aF14.93749071698817
aF18.72070060764604
aF21.09167381214549
aF17.162232594648643
aF15.955305436884563
aF11.482018608668787
aF20.310860244934467
aF12.91737883081597
aF22.06288110220256
aF15.422139704558932
aF19.6037694429512
aF10.28613646577311
aF18.021356844552862
aF12.30884725859925
aF17.38880904873444
aF16.044500462071294
aF13.401701878886941
aF21.908779762761963
aF16.511327240526914
aF14.308201885996283
aF14.470911473203273
aF12.032343256369003
aF13.362727175767125
aF13.665973039945822
aF15.823650356590917
aF13.999405626420273
aF21.807194770323584
aF16.900461847209783
aF28.909476210071304
aF13.41006595242806
aF13.576432084744807
aF10.449968999794548
aF12.422423019831147
aF17.75583788992365
aF13.95684142330984
aF16.960615946044644
aF14.186513430532703
aF17.34371155972071
aF28.72861953096816
aF16.359681759138592
aF16.749104931699293
aF16.273685136278868
aF17.432658804269032
aF18.307194028017626
aF18.34779747965258
aF11.585366123892374
aF16.514093652066585
aF18.240567580701924
aF14.80185061225987
aF21.381521925163035
aF13.389513638504202
aF21.869399397834233
aF18.470205400366112
aF23.912206880035736
aF17.634856105751428
aF18.100116010811455
aF18.921019320519054
aF15.429890563823141
aF11.235556446413025
aF20.362534188339307
aF20.40657185774447
aF17.583231879634706
aF16.829663749928915
aF38.751698737350175
aF18.400223078802334
aF31.417756349878502
aF20.07370069899265
aF13.724347294937909
aF68.29292238169461
aF16.777510624462
aF18.624152410032885
aF16.621257977585245
aF14.46577258613715
aF16.223224022208033
aF19.406020077772805
aF20.792618599864422
aF14.38619515708102
aF19.63018973507751
aF11.009788324281253
aF18.07575495245091
aF20.254641182577895
aF16.412320418299412
aF15.686575791760013
aF18.59337827147834
aF29.073297987933817
aF15.646719662223722
aF22.775029049405948
aF15.662738907299737
aF26.096140647577137
aF12.328673997025978
aF23.007044203801847
aF15.541451162054472
aF11.866311561540043
aF16.640992390698255
aF26.233540207458407
aF14.22142590883442
aF17.491266366619595
aF15.971221002385574
aF12.821111926514323
aF18.377543460226185
aF21.14794840778657
aF42.50599135253189
aF18.012634960354593
aF15.399099785853165
aF15.053487188298492
aF13.484902466399658
aF13.231878225527646
aF18.507072885312652
aF21.318666152267944
aF14.421937777195877
aF12.28586412840426
aF16.667322640840922
aF17.029575162250584
aF16.323680552476702
aF12.758479931338986
aF14.852681212820157
aF14.26113117010732
aF9.326113549702509
aF18.784087226025182
aF16.61389445329958
aF13.987299133889248
aF16.857305274808198
aF15.727989980264693
aF24.71843798838657
aF14.838096281085784
aF18.738510668742126
aF21.33966615797957
aF13.858677624685402
aF19.360959147208924
aF14.63319591747994
aF16.16815430406601
aF18.445036316373915
aF19.25716059160649
aF22.08178649108058
aF18.55546873093541
aF14.95451946772255
aF10.485531557040792
aF15.391677615856576
aF18.98285973327983
aF13.982697641180504
aF9.447199876246506
a.