(lp0
F25.468167983472735
aF26.794836787058376
aF18.930808197192874
aF19.195427857572543
aF21.132184573797655
aF27.399872678165256
aF26.452488668521116
aF37.72338257249737
aF29.573088649293812
aF26.863921337832704
aF24.506473956271822
aF19.14092365397424
aF22.883172656748943
aF25.261632126539403
aF27.443360473012646
aF23.259485316796827
aF24.772625691148644
aF27.347361498311358
aF22.37062332402127
aF18.699606905444647
aF23.571461709967767
aF18.031001006639542
aF23.87053847386414
aF25.9341359793015
aF32.2481317399702
aF19.60429404030901
aF18.089785578571945
aF19.340377357562303
aF28.780311551892233
aF27.414912939120523
aF21.542979662550323
aF32.917655814992706
aF27.21020986148776
aF26.219254175395225
aF21.873441088100588
aF24.78556445101087
aF25.493921711998322
aF31.085328350910842
aF26.241983482477156
aF28.391479305123067
aF25.34933640655277
aF24.522504488080774
aF37.10460106520335
aF22.90957497381341
aF25.44043154490443
aF20.859107755632504
aF27.138105940467128
aF23.55606160383189
aF23.665796902414755
aF23.895802963823307
aF18.568527085526295
aF42.98007337173877
aF20.496810191656476
aF56.21766061417779
aF26.04060391081922
aF26.8288488066492
aF29.03477334625567
aF20.664299961474658
aF23.51442457073961
aF22.193566543274418
aF31.883914211668685
aF23.673809839115
aF27.15208331570954
aF31.443940234073352
aF21.892328334441466
aF25.73836153925381
aF24.192934981870707
aF22.841392210387976
aF21.182803099154434
aF26.37379415873298
aF33.43773783294909
aF29.69767478383844
aF18.842620367817336
aF21.295706937899908
aF20.49541428703167
aF24.261543833611135
aF21.560433633109636
aF27.74514568064645
aF23.544100258422656
aF22.861935637231934
aF22.74187011853836
aF25.009737626305505
aF22.920775608319456
aF23.884195264937944
aF22.592505675269667
aF21.78769235948637
aF22.169839955751243
aF22.338094586328456
aF24.92743327963959
aF21.447736688935706
aF31.567128649240782
aF31.024748247791916
aF27.39876849911179
aF29.04355486836884
aF26.99641030622948
aF23.449406129392045
aF24.8346678030544
aF22.061689174936422
aF26.126289891891847
aF19.279605474239638
aF17.65408686271163
aF30.9419851062389
aF18.38835251525811
aF27.811643656766798
aF22.196688480086273
aF32.89065580038082
aF35.52670768780278
aF23.00650487163705
aF34.97309722270156
aF29.62976282423668
aF26.71495281482469
aF23.671516599918228
aF24.030681834624477
aF23.450600222497222
aF20.98220946402762
aF23.310904085877574
aF30.18467628152162
aF24.462156040815856
aF31.71844212323932
aF20.828518832375376
aF41.37823088829983
aF24.477124888493403
aF29.101466374253867
aF23.184860562621274
aF23.241978521859334
aF26.966879248195312
aF26.00361141867344
aF21.2254734676976
aF30.999349570286235
aF24.464373426967107
aF24.234548166988997
aF25.676760818443398
aF62.31087575969412
aF27.354238251114484
aF21.136995734205083
aF22.91277724888085
aF20.060035175114912
aF23.439868998423762
aF24.26018979432793
aF19.142304014565923
aF26.635951969095494
aF27.947464371165246
aF26.468575782689562
aF23.17427933275068
aF24.179460963193733
aF32.474365025456045
aF22.429163412044296
aF20.424895598503404
aF21.61288065470047
aF21.277214118511807
aF34.50917209512917
aF23.155415373068745
aF27.443488314213962
aF22.528243237378888
aF26.393932320666842
aF23.004522138769488
aF26.063296508592668
aF24.80981115071121
aF25.587341344754517
aF18.85130870282329
aF34.09719080336858
aF23.498572373503134
aF22.64660293038675
aF32.1418497510227
aF25.583065712378488
aF24.94332813223623
aF27.195659990944637
aF19.731078594211755
a.