(lp0
F25.468167983472735
aF28.464632705787484
aF27.486757057053694
aF28.474494590886156
aF22.914398845537512
aF28.55679916903733
aF22.942915273972854
aF22.353559313485334
aF22.205605173491445
aF22.11406038517728
aF25.652552474254573
aF19.55057004388342
aF27.94901282700779
aF32.24081305328469
aF29.246201602525627
aF21.734111563521097
aF28.391479305123067
aF29.795591495858893
aF25.34933640655277
aF28.38837934042551
aF22.386853332550142
aF26.117035612352126
aF23.90760848490357
aF29.03477334625567
aF28.938756186726476
aF20.535274893644516
aF24.74615494430314
aF21.074453208811068
aF22.97726430608848
aF21.994616645704166
aF23.09358738337976
aF20.972088965326968
aF28.687333223812804
aF28.36014122756486
aF21.560433633109636
aF26.735952953162432
aF28.124752394829855
aF33.342225543684265
aF28.66516286710927
aF21.516339629526065
aF31.29770160083177
aF26.49190150821785
aF25.070743711198787
aF23.50352876223211
aF22.338094586328456
aF34.38605336790917
aF21.447736688935706
aF28.87625756914137
aF27.649953236046635
aF25.500937570353848
aF29.04355486836884
aF22.061689174936422
aF21.909573693887836
aF27.408986710353897
aF22.10761275246809
aF17.774035943931896
aF27.91131727390078
aF22.9843657351354
aF22.00251558448629
aF27.811643656766798
aF28.547823608528407
aF26.236147627396928
aF24.905787220855018
aF29.65524280135997
aF21.575253197402827
aF24.530397176651316
aF22.318188940199434
aF33.74277708804237
aF25.210808728613806
aF20.828518832375376
aF32.35239505566151
aF20.55826322104215
aF26.8406284983113
aF25.341265057682286
aF26.8517693663321
aF22.139193023138077
aF26.251347850500803
aF24.464373426967107
aF23.012419231909444
aF21.077112653964427
aF23.730744877433267
aF26.150848091246328
aF30.20098559657337
aF21.42642237849925
aF34.50917209512917
aF31.23642735216172
aF24.41578760892892
aF30.003152779417064
aF26.336866374479452
aF27.27198085022497
aF26.75145900965283
aF23.308419096048183
aF23.22847652024889
aF21.84512001212675
aF26.14135522357643
aF24.342543944634063
aF30.201960306489873
aF26.79668557925588
a.