(lp0
F1.4284633515633804
aF2.50305248523793
aF1.3046993421041937
aF2.1578508078900893
aF2.3687294811371356
aF3.251567230514392
aF2.5526063726501342
aF1.4802720941445249
aF3.1462886199965214
aF3.1884972380686243
aF3.621144662457677
aF1.5323562440166603
aF2.897714911481538
aF3.6732820401305384
aF4.039672043860418
aF4.34764019380637
aF3.346988534358037
aF4.514759678038854
aF2.4045091058440144
aF2.813254241601627
aF3.3172254577683042
aF2.3906079771492745
aF1.7125416946053522
aF1.302584289422696
aF1.485321579784943
aF2.9117297313539012
aF1.9657566082652562
aF2.1670608661081507
aF3.2941963909081604
aF2.8037380430713217
aF0.5140008895877723
aF3.1834056157280206
aF1.7313209313700182
aF3.2491138802453348
aF3.5014152536690037
aF3.5671307295112804
aF0.8963581925827578
aF3.2276825800427136
aF4.986078499618729
aF2.6707758171962244
aF4.737258715991712
aF3.6150872243128775
aF2.4567516904809064
aF3.207817866713172
aF3.1403682910720856
aF3.3966080177329503
aF2.230378200757748
aF4.461912593886327
aF1.9373227200792436
aF3.5619936166343105
aF3.5133616521417737
aF2.2610476237997306
aF1.4033095058611804
aF2.700308219825161
aF4.844847114735449
aF3.3907922526483256
aF3.4561509423414534
aF0.2139700284613445
aF3.4357759374633803
aF1.8460598624696822
aF1.2853035045869667
aF2.135492649935926
aF1.2686490491743152
aF0.8848622533039469
aF2.394502515634907
aF2.142734719390508
aF3.176644677439967
aF3.7680569881899473
aF1.971767449639551
aF4.0022385051482
aF2.158876207815566
aF3.0487113490709024
aF3.1794779384729854
aF2.983513145506235
aF1.7656657052839893
aF2.565299989174571
aF3.171258577790642
aF4.443689985018011
aF2.1966867024795054
aF1.3985346575759254
aF3.4211747089348825
aF2.6002908728961405
aF2.51914787279127
aF3.98231563220974
aF3.828210649231272
aF3.2119008064747945
aF3.088387620838878
aF2.3056844491585826
aF3.101665649075439
aF2.0851034855213726
aF1.0733235548700724
aF1.9882927655121976
aF1.4741017369206157
aF2.565847839606181
aF3.108721866413824
aF3.5136913068695823
aF3.890025293219148
aF3.409998213697863
aF2.6142529295102976
aF4.126453817164489
aF4.689516285828761
aF1.9935118796007332
aF1.3819339081941642
aF1.5287399721374333
aF1.2197706451626507
aF4.247633287333969
aF3.4158229427002116
aF1.7644317298252226
aF0.7624496482652613
aF3.993006998833234
aF2.0553444323299788
aF2.7044246132547767
aF2.3835000823338675
aF3.3174101783331666
aF1.6455008194327725
aF3.320118562173553
aF2.055346763730916
aF2.6851349178237545
aF1.6935641484411819
aF2.8669689482374134
aF1.1799253024258716
aF1.7147728004928404
aF1.81982989592231
aF2.9853570099086673
aF3.3921812465196757
aF2.2151402427091873
aF1.7911140221265038
aF3.14482492353894
aF4.9266202782530835
aF2.176007875420458
aF1.775129048099881
aF4.478235778288342
aF1.4132430755863872
aF3.344395683295165
aF1.2934429050803387
aF3.06793773588766
aF3.098203817721066
aF2.4791813808106
aF2.3223621584906398
aF3.7233208564795994
aF3.046814616553542
aF2.5868890486306433
aF2.920338300159203
aF4.240557336362415
aF3.392294507276835
aF3.1987663918286744
aF1.110723034120059
aF3.1017182331522464
aF0.4261163914295684
aF3.2253937996565565
aF3.081450000469759
aF1.9743146227240727
aF3.0064724854892786
aF4.2188026552960665
aF2.26314070692833
aF2.9943589680725338
aF3.617825852828528
aF2.072792056061226
aF2.4449385044563514
aF2.1663666676231066
aF2.917097142996926
aF1.5054367509037099
aF2.6934418415150017
aF3.724107501924288
aF2.6562403032118236
aF2.188867183755089
aF2.045423306609993
aF3.7736879460151016
aF3.3314759097351248
aF3.9794988084026546
aF2.9063939484915076
a.