(lp0
F0.048158052737059705
aF0.05256641638204795
aF0.03726397789610108
aF0.054722596837267545
aF0.07844461903376693
aF0.06050470173123873
aF0.05408700087843913
aF0.04270915479404688
aF0.08061763708065182
aF0.06950870186817859
aF0.06404587276877642
aF0.10133160502042203
aF0.07218938922847544
aF0.06934680648566371
aF0.05544970008860058
aF0.05839863278820807
aF0.05364716473740408
aF0.06685158559266718
aF0.06424940389653451
aF0.05436131915485196
aF0.0676299721387215
aF0.06940422095633794
aF0.05496983071474482
aF0.054209120766119764
aF0.06528513329024024
aF0.11836768447546506
aF0.0609650931978118
aF0.07897993303618726
aF0.08640562783152424
aF0.0502866417589733
aF0.07265098644431765
aF0.07649589466678014
aF0.06347562475870883
aF0.04863184335430298
aF0.0635364005148577
aF0.05908076406108847
aF0.07049823170407922
aF0.0574136059060357
aF0.05230462852568594
aF0.08679960811541833
aF0.02438528109640934
aF0.06546304085977937
aF0.052843959326759844
aF0.06818012424350782
aF0.07322799844453479
aF0.049887295131408244
aF0.05626849417780571
aF0.06612320167788863
aF0.06375433320715151
aF0.04061293925921758
aF0.0672484204209957
aF0.0818679015135356
aF0.056454063968142947
aF0.047628375544379035
aF0.07813256715421896
aF0.06984216049823143
aF0.0727203617050055
aF0.07654465816007489
aF0.08694375032951628
aF0.0739373916558672
aF0.053455778259255446
aF0.06452616063479696
aF0.07988059325377368
aF0.04218652554746781
aF0.078042485781077
aF0.05808276167950226
aF0.051405214210969344
aF0.07887166330758982
aF0.05453288449772915
aF0.06557638187148956
aF0.06688577805160996
aF0.05908878089887271
aF0.058391310997882015
aF0.07909726713625247
aF0.06624672936369583
aF0.06561106378826898
aF0.07605716900359424
aF0.0669959810108012
aF0.061925735285073634
aF0.06471204385602215
aF0.07315776242261525
aF0.0680378384070348
aF0.056393001304707265
aF0.041192951078074816
aF0.043169147242228
aF0.051169922314649265
aF0.060457292933831536
aF0.05065698890772291
aF0.06761266870647961
aF0.07049267599027266
aF0.05992473163121336
aF0.08167077610354945
aF0.06775975674306002
aF0.06376306640004561
aF0.06685350412517224
aF0.0439592462157318
aF0.056383299315320025
aF0.055274991496788654
a.