(lp0
F21.95433048718727
aF21.419641383927473
aF22.375978532253743
aF20.666972203630557
aF17.426405852614508
aF37.60536137551292
aF17.815755390999836
aF23.10673193244887
aF19.10402904004306
aF29.85978284164684
aF21.069337763380084
aF18.689693134938874
aF25.73217670514767
aF25.766773700285828
aF20.720239776876184
aF22.36814506570815
aF30.650202207986435
aF31.800650478971075
aF23.905437184118163
aF18.70171232113889
aF23.745959576852112
aF29.03233718022429
aF23.135479810787036
aF18.71811058037952
aF24.649147279626924
aF26.95277232309808
aF23.244723412024396
aF47.86942049036472
aF29.547697801162084
aF23.85124202404009
aF24.685502070595966
aF31.667576552927134
aF22.951636059249715
aF23.85357930498032
aF15.97613530335958
aF33.52493915014442
aF19.54278284259128
aF20.98482494931879
aF18.56043935140911
aF28.99269622637358
aF20.451782648289623
aF25.01639037760375
aF25.48368028669367
aF22.93205586158646
aF22.488744829147684
aF19.742341710362336
aF19.882537001601122
aF20.310745243583998
aF16.769563366681645
aF21.03507343612639
aF21.391931087686935
aF20.010212597056242
aF27.794242023831366
aF24.306782244155485
aF25.03981194268947
aF20.314500916446253
aF23.460451418587645
aF22.049979680423885
aF21.61058995915649
aF22.522183134604337
aF27.560659431245455
aF17.157809713334146
aF26.42751473132318
aF19.503608597671857
aF20.925249829623805
aF26.954268496134556
aF21.698253752745888
aF21.620051164664858
aF22.22347253221683
aF18.532851882310663
aF19.947913317183467
aF19.840405238770465
aF15.42085666941746
aF27.193658885460813
aF23.930148159449544
aF30.44300361709181
aF19.55364620680199
aF19.965435335842646
aF18.262709449071355
aF24.29491709530138
aF24.63551295705477
aF15.721433799683542
aF22.214742429513585
aF21.689706589992326
aF19.50031545013471
aF24.19901245884147
aF21.753907025508582
aF22.607319461040426
aF23.13706297474825
aF20.045258290092146
aF20.81853507939163
aF16.348406926812256
aF19.16113774154685
aF21.885793297836138
aF17.940381488768416
aF21.10167662886899
aF24.18645963879366
aF18.98176120344961
aF20.079272855629743
aF20.688569669843652
aF19.96341530317124
aF21.86452332486271
aF30.36268368572146
aF22.035051450356157
aF18.137625670770355
aF28.108059700716552
aF22.151158050024726
aF21.682489459733734
aF18.916502618824996
aF23.12580522173287
aF19.63942164389
aF16.827720630834634
aF21.379115885097665
aF16.577259809307503
aF20.186080683298385
aF21.747641133266974
aF24.15032204355293
aF23.371681351298474
aF25.063419897360188
aF39.46182770011175
aF22.416787343167517
aF20.94964618509853
aF23.17614052443593
aF16.58955095396504
aF20.481593392597
aF19.026270197427575
aF21.434228731940994
aF22.463328897141434
aF21.98195738834294
aF25.092157534330322
aF29.777371710591108
aF22.5329871234394
aF21.029788121679903
aF22.719815751824935
aF24.251725037625405
aF21.28727793830345
aF26.81408011141487
aF17.620490838345148
aF39.48140987835666
aF28.881280705062306
aF23.522066961496613
aF18.25484560816622
aF24.453090771346805
aF19.023344873083648
aF30.478258184291587
aF21.72932756980178
aF19.15547908813716
aF21.462931190284557
aF22.17321538575469
aF21.127403446531364
aF18.69041849403917
aF22.42700208668823
aF15.388135745265908
aF20.60714655235903
aF21.501938735138076
aF19.153946873423354
aF23.827925645725568
aF23.445484509839467
aF21.41934129946294
aF18.703679500625576
aF22.06578733805981
aF16.926927752640164
aF17.190291919854854
aF18.5556506615017
aF24.91783337441095
aF14.88796319936953
aF21.186734485705628
aF25.89399696317535
aF19.773287932701816
aF21.881847649758985
aF25.05038528609837
aF20.634159515620944
aF20.427275209249615
aF18.021757433124385
aF19.33730197648614
aF24.82408789842698
aF26.726591807626058
aF21.586358268515724
aF22.41213131652361
aF23.21275254695558
aF17.593530900891892
aF21.90056587525502
aF30.864966376680158
aF19.766909475791415
aF25.057784858007782
aF21.81417476261665
aF23.865727298421465
aF24.247227493920498
aF17.963624336154595
aF20.060666508976038
aF19.857228562474404
aF26.94948914610746
aF23.079119228658033
aF18.858518914183232
aF17.3277669341993
aF18.622641084546636
aF21.112191865882625
aF25.709293794171337
aF32.60806147284557
aF16.556409215156812
aF22.414358957842627
aF46.97122746175397
aF25.356508795277737
aF30.326188049774835
aF28.091027735051682
aF21.367490393459203
aF18.200353838726397
aF15.808273225993096
aF21.256497265243137
aF19.84569500510641
aF19.88051797689053
aF16.95860517066365
aF19.844565435582147
aF19.68295850284323
aF20.33101532694228
aF21.951649372766475
aF28.711816382412966
aF24.271617337339464
aF22.742247122774252
aF22.596426049542266
aF22.99223030392527
aF17.87375570346664
aF17.38827503184019
aF22.870548604374882
aF21.93610262126281
aF19.78338551807222
aF23.104108257207436
aF19.2284151080537
aF19.703277819159428
aF23.314097379080856
aF23.138577268891666
aF22.704685858863588
aF30.759039365232244
aF27.100199021654817
aF22.25701403010264
aF19.968719172934474
aF23.15921680395876
aF24.847114616369783
aF21.070181471916857
aF23.85065969701119
aF23.916745491564544
aF21.661490301379477
aF25.045030589576168
aF23.111624192104376
aF25.45608275619153
aF21.26737644305124
aF19.90303583855266
aF18.67819656938198
aF17.2891974411046
aF24.78162214997873
aF20.137180791176085
aF26.017769306929697
aF21.27588247798966
aF23.002810525341676
aF20.26413806692649
aF23.5333782740641
aF19.26491877675197
aF23.86844738978613
aF24.86331824191106
aF23.614161032143226
aF22.028406184442613
aF19.442380176828667
aF19.788422645543033
aF26.45011273778941
aF36.932923727635334
aF23.627517221781904
aF21.526224710256436
aF20.888561408205735
aF36.044130358991744
aF26.826880654177923
aF24.2682315535086
aF18.039907053897732
aF23.022778778431206
aF18.14036609027237
aF19.255039402465805
aF32.37755982289045
aF20.84477746467843
aF21.19209638851108
aF17.549133442827706
aF18.66201189801819
aF19.523115506851358
aF25.98397395709421
aF15.75209489278483
aF25.114374706363865
aF23.554380720715404
aF14.15217393789368
aF20.714490906691854
aF18.68659941992872
aF24.65709673664313
aF24.310659485618558
aF21.124034938315454
aF43.60255847224008
aF18.684445142784018
aF18.996810613166968
aF19.78839820970804
aF18.56027989364841
aF19.732725480200994
aF19.6353564366277
aF43.22243791512225
aF22.74377919274414
aF26.779935145858307
aF20.791130466834208
aF25.140464977813036
aF19.188016544873726
aF18.633132484497363
aF19.43974682819643
aF20.641028472695844
aF35.65310385192223
aF26.564232602080054
aF16.97190173632776
aF24.577694921214302
aF32.83650289364259
aF22.823187686952945
aF21.007398721309443
aF22.04948363317604
aF18.83650386815006
aF17.734757579451596
aF22.419637532852143
aF25.07052038026737
aF24.40467010243948
aF22.68543293117577
aF24.484958323342585
aF39.941585383518415
aF18.41116632100717
aF14.336302836395829
aF29.536632507751
aF18.957974826464163
aF20.727283724368398
aF17.372911887239123
aF20.706646689516308
aF20.600332723306256
aF16.21468251177129
aF30.47123225457124
aF16.548919094089012
aF17.134610164605967
aF33.230491778464334
aF26.603945319079358
aF20.693133334736956
aF18.12506361151008
aF31.74838968740881
aF20.50956241493237
aF21.082264362023686
aF32.19468647756968
aF22.00479838963575
aF22.665092767363777
aF31.496760666411518
aF21.2905380845689
aF22.66950876519363
aF17.539597852895657
aF107.59056575976993
aF20.33107954069383
aF25.300249875898214
aF21.027900291122
aF16.083021334172685
aF20.669973771795778
aF19.30360502129713
aF22.33048480848154
aF33.10385187907338
aF23.361290641544535
aF22.60297094894137
aF19.46586081078258
aF17.848389082487895
aF21.150112031589124
aF13.871860788466238
aF20.72947182089302
aF17.63016190175739
aF27.306170171859513
aF17.174517382965096
aF24.269146407473244
aF21.84351894642564
aF22.72520857288228
aF44.675349868284634
aF18.43141722216986
aF18.041520994784545
a.