(lp0
F19.408393115955835
aF21.270580544641522
aF20.308302625503938
aF24.13240461968363
aF27.30890787513207
aF20.2876377245858
aF28.425864425103676
aF20.360720045310355
aF25.565581526528202
aF20.84344033552006
aF21.329203332852167
aF29.74656224881116
aF20.0400111148653
aF23.483296359236075
aF19.826189590061357
aF25.935601262179798
aF24.653189609920336
aF23.38715996602565
aF18.493614178762666
aF21.28764090244935
aF25.14459700229237
aF23.508238912962213
aF23.383808835106038
aF22.244293328893356
aF23.92277129570304
aF21.85848721612569
aF24.205266072693032
aF24.50837080789134
aF23.503246092281962
aF24.39105496173816
aF26.726591807626058
aF18.237850547516945
aF17.715900854964993
aF28.427095332288182
aF20.598043696119806
aF25.430091126701445
aF23.054469332646043
aF16.944790867272587
aF22.202000381160786
aF21.650253077952723
aF25.02459672635667
aF26.755922263645303
aF28.07094661439756
aF25.06913857661785
aF20.853318461364186
aF23.461609343456157
aF25.83250361069612
aF24.077597769005315
aF26.86602005138886
aF20.307091407087896
aF29.87712735772405
aF20.633158026871506
aF24.46176860454453
aF21.217774319456353
aF23.52100123966741
aF22.574511106089652
aF20.49347555549799
aF18.121129968960517
aF17.561565323246334
aF24.19850487801216
aF23.517584867801343
aF26.155911223497206
aF22.16321431092407
aF21.9372855027963
aF18.95210434787381
aF20.090398059018273
aF18.126163293684368
aF21.06151131434688
aF22.620968752140797
a.