(lp0
F19.408393115955835
aF21.270580544641522
aF20.308302625503938
aF24.13240461968363
aF27.30890787513207
aF20.2876377245858
aF28.425864425103676
aF20.360720045310355
aF25.565581526528202
aF20.84344033552006
aF29.56701052653975
aF27.030659117824488
aF19.826189590061357
aF25.935601262179798
aF24.653189609920336
aF23.38715996602565
aF18.493614178762666
aF21.28764090244935
aF25.14459700229237
aF27.058791071224785
aF22.244293328893356
aF23.92277129570304
aF21.85848721612569
aF24.205266072693032
aF27.540237350752836
aF24.50837080789134
aF27.047110559505715
aF24.39105496173816
aF26.726591807626058
aF20.109816592668427
aF17.715900854964993
aF28.427095332288182
aF20.598043696119806
aF25.430091126701445
aF23.054469332646043
aF16.944790867272587
aF21.650253077952723
aF25.02459672635667
aF17.245101686606034
aF26.755922263645303
aF16.974815021767604
aF19.07081001350423
aF28.07094661439756
aF25.06913857661785
aF20.853318461364186
aF23.461609343456157
aF25.83250361069612
aF24.077597769005315
aF26.86602005138886
aF20.307091407087896
aF20.633158026871506
aF24.46176860454453
aF21.217774319456353
aF27.068539568598283
aF22.574511106089652
aF18.121129968960517
aF17.561565323246334
aF24.19850487801216
aF27.077523322386448
aF26.155911223497206
aF18.95210434787381
aF20.090398059018273
aF18.126163293684368
aF21.06151131434688
aF22.620968752140797
a.