(lp0
F0.02408247422838134
aF0.029494289036633557
aF0.0254099221073071
aF0.08847000183948295
aF0.04031680833322684
aF0.026071612661413748
aF0.042732948050159494
aF0.035131220270981166
aF0.04575086554135332
aF0.03745366306162527
aF0.019480408949900718
aF0.03157928878945342
aF0.01606372291944911
aF0.02198811362511232
aF0.03341503880218132
aF0.013347989967916394
aF0.01710991343087022
aF0.03130662904655003
aF0.03481995162751682
aF0.020765291105051743
aF0.017578692675181435
aF0.04283829133478494
aF0.015075006231176313
aF0.03504889531001881
aF0.017257017082551097
aF0.020207492604077004
aF0.017067320804275605
aF0.03579587016613997
aF0.02539074795172583
aF0.015410199798497557
aF0.029982687460383236
aF0.07952657405417278
aF0.045818577704940376
aF0.007007430226440604
aF0.03476640012333773
aF0.05492596251187232
aF0.02862851716094144
aF0.0464606036763932
aF0.040526434356954695
aF0.03426268405582918
aF0.07782786665078945
aF0.03435988793995642
aF0.06849101201373624
aF0.02376078554066856
aF0.030963712173481827
aF0.050100954429386016
aF0.03210928548955613
aF0.07640826544036028
aF0.0378918010080328
aF0.046934059314470596
aF0.04347531524771373
aF0.020643805873830492
aF0.04438043236017913
aF0.026112914372009244
aF0.02954525085705503
aF0.021402319647369297
aF0.023183760803689002
aF0.03656560130664001
aF0.017152274075205882
a.