(lp0
F3.2354610709882046
aF2.42461790061678
aF1.2982449332519868
aF2.0928324113262384
aF2.1887466688949346
aF2.1386766279966167
aF1.7077459547357379
aF2.4511790001455984
aF2.3152588568847006
aF0.962214987142983
aF2.611892940220245
aF2.9544143474090307
aF2.7369288172112
aF1.7842035133041534
aF2.254199658027467
aF3.0149876444687074
aF3.8208481634342006
aF2.2907987043614275
aF1.7780894060181842
aF2.4622729525593763
aF0.9852203782975529
aF2.6580891734500476
aF3.4240465160246223
aF1.3723001062021913
aF4.133477887858056
aF4.577644911782474
aF2.0467977846783167
aF2.3903163436484505
aF1.6046622960842678
aF2.662392423832676
aF2.647432660280464
aF1.8365417962296955
aF2.1352958610303934
aF2.0518492580797516
aF0.8702402979361045
aF3.0189667921096652
aF2.734820241709809
aF2.3624371834264073
aF2.2846774062113484
aF3.525024004596534
aF3.1167849612119722
aF3.841387058557764
aF2.030173450350499
aF4.460394637964546
aF1.2742698438871227
aF2.2790199702896112
aF1.2101169082683574
aF1.7066350163785797
aF1.8521745997812906
aF2.7100073569626053
aF2.7189587454106188
aF2.5035492169084157
aF1.7876987609338155
aF3.3099817104399745
aF1.6120257229581272
aF1.398936202676051
aF4.086925956154622
aF2.8803830268669555
aF1.6219878468160005
aF2.7351450011745633
aF1.8017513485818548
aF1.0025646583966215
aF1.1804125771167644
aF2.254528023717288
aF0.9831792866544362
aF1.5962439131318393
aF2.1677547278594846
aF1.9219116341064741
aF3.423173128773415
aF2.5515272221157637
aF2.7403590428434397
aF2.207140162424532
aF1.5345724943249806
aF3.0333474899340356
aF1.1370087060415275
aF1.8474440607659237
aF1.4692478902932853
aF1.5630705631428905
aF1.9339427941709122
aF2.718094933688634
aF5.098877231508804
aF1.8412073859232037
aF2.5505011699057643
aF3.3580808460089884
aF2.931543105339047
aF1.810614518429788
aF4.1006076781974885
aF2.7845380644765787
aF0.17476632430621458
aF3.2360073967682617
aF2.7041992386211646
aF2.170014145461607
aF1.6342085887013944
aF2.0431638236553398
aF0.05512356212129281
aF0.8516455165901937
aF1.3092403003545043
aF2.8863724742483488
aF1.8014734121636204
aF2.1368162183337778
aF2.5534287755925718
aF1.7093961845976038
aF2.6469139751395008
aF3.253862262710761
aF1.8916762022586777
aF2.0733631534698698
aF2.2085317429473164
aF1.1169920902954333
aF2.2894957723458975
aF2.822562003108274
aF1.773446749271691
aF1.7922048560991526
aF2.2199323939255553
aF2.3027740460904216
aF2.7528759845955846
aF1.4051778382747262
aF2.3038115515690736
aF0.5023221910598494
aF3.597871991271865
aF1.9143204250707455
aF2.7348551500432166
aF2.8042484776455745
aF1.7226667717745403
aF2.565539956303481
aF3.2763686800379594
aF1.743567733597696
aF0.9918196467642415
aF0.9047226302132997
aF1.7657429379285265
aF1.3055875866768116
aF2.271615606535437
aF1.8417364604756605
aF0.18771800330655164
aF3.1459612781659656
aF2.1191374157154685
aF2.5918975993722815
aF1.1916889111813005
aF2.19766680607521
aF3.0218267332410402
aF3.0615125156132317
aF1.262300091793685
aF2.0272216099747107
aF3.9618173399836247
aF1.7866241011243857
aF1.6898116711574642
aF2.9430214235299177
aF2.7583814702509515
aF2.0038154184504813
aF2.0058763044444
aF1.8039434283455777
aF1.834278501578041
aF2.8265649202155485
aF3.1290150739017117
aF2.7648426080859396
aF2.634807030094799
aF1.236577464193882
aF0.9455967146908426
aF2.0325712069876634
aF0.9512692854444703
aF1.546896173864276
aF3.3788011283779045
aF2.069993623234753
aF2.296411980851716
aF2.3102806450195135
aF1.1901279896652945
aF2.1491622774753822
aF1.9030102735630543
aF2.654401861217892
aF1.3414877985196438
aF2.8086476613269546
aF4.060361798060763
aF2.4909123058231573
aF1.2390354625692446
aF2.9253780870936064
aF3.099856261388998
aF3.053081545114655
aF2.1855828923497045
aF2.5836846188961067
aF2.641014017078461
aF3.205749845507354
aF1.51283774447341
aF0.8283220136996896
aF4.54745987871583
aF2.1733016967011327
aF3.420809082460944
aF1.7992299707024484
aF1.3964012843249354
aF0.6322085424600278
aF2.8689066490711075
aF3.259978730078346
aF2.087513394289733
aF1.4098518352765526
aF2.8622350326584987
aF1.6476943148493925
aF2.5702942481519244
aF1.5266318773038614
aF1.6905175892942959
aF1.6935111757457662
aF1.6594840389516454
aF3.2523423630548978
aF1.6498961571298127
aF0.626806137624688
aF1.5822317313983498
aF2.6276780042514107
aF2.7576730170480173
aF2.8029099837536404
aF0.633816003357902
aF2.553292040127566
aF2.625901341166557
aF1.7553195389102245
aF1.4854826449438283
aF1.4509193512389595
aF1.5070993623365112
aF2.209161728725672
aF1.7268476186006527
aF1.7407266176264726
aF2.1448330575310406
aF2.4459692285465664
aF2.786309593171089
aF2.364251879414982
aF3.6954287404396897
aF2.986738821524341
aF2.8361628807587187
aF2.818518781517396
aF1.8136499466411282
aF1.7966048745912515
aF0.9344461969588022
aF2.109133144683122
aF1.7672311280556234
aF2.1968156146659648
aF2.5167575937522337
aF2.9509898235001155
aF3.654031508551538
aF1.9439025584759384
aF2.688568689446018
aF1.7196775408494847
aF3.514925169015795
aF2.2123435641971954
aF2.273646971206877
aF4.160507264073031
aF3.43127657046722
aF1.495814393987392
aF2.8937285522221754
aF3.1325405489850624
aF2.5914209536547816
aF2.9673030983505067
aF3.159991960126722
aF3.037018817794313
aF2.236081951289973
aF2.9640016242998786
aF1.8899375254429924
aF1.112628918545683
aF4.937743921119014
aF1.5002121031544169
aF1.9830644198467782
aF1.5688833787049379
aF3.0394864783305864
aF2.7591081019955386
aF2.4866786769982543
aF1.7404547021593955
aF2.7833879837460356
aF2.1479437602856453
aF2.4740668963741643
aF1.8042608276406376
aF2.346836797206326
aF2.100814740263601
aF1.2400877795991883
aF2.5588878049202974
aF2.6759244465793155
aF1.932193646528937
aF2.0073126814342417
aF2.9749718376292025
aF3.574491073190018
aF0.9912394414360133
aF0.7070439922340496
aF2.671287286175271
aF1.8693133500238868
aF1.9797633195210997
aF0.5928749921620328
aF1.1078207679886605
aF2.6981862366263565
aF2.514713087367936
aF2.5376155233513846
aF2.3099134223139677
aF3.279645449148445
aF1.7447761651296725
aF3.9714779063724057
aF2.8082567757315533
aF0.9631139287191494
aF2.1654177623529405
aF1.0340750878933622
aF2.3921910223224
aF3.638995033212811
aF2.9164734096187614
aF0.8826173631462454
aF2.3973003893053693
aF1.5440822053817518
aF2.8435690117955503
aF1.6386221699179948
aF2.0174505487839776
aF2.834634876820526
aF2.857021117154687
aF2.322767745689765
aF1.7417843295251783
aF0.8229433186095595
aF2.8283834199831395
aF2.1644599749648497
aF1.4355720757855324
aF2.034407423325274
aF2.3768533487221797
aF1.7479660220632505
aF0.9660416371116841
aF3.6742055277866617
aF1.3864507835961657
aF1.6589041742183734
aF4.386014271265815
aF1.715091286757006
aF3.1761438852182597
aF1.8593849255720118
aF2.3022030563451796
aF2.439727783536243
aF1.9355869524465286
aF3.715191663965545
aF2.1147509245782037
aF2.073011947126185
aF3.210354895179854
aF1.0583658014126907
aF2.4156625426547906
aF1.759185415224822
aF2.431760181977938
aF2.456722402295977
aF1.8943494861298737
aF1.8652002664213798
aF3.1092515842220347
aF2.21733076366619
aF2.0281083991477526
aF0.6663182025764335
aF2.5498245072557046
aF1.78030956917813
aF0.5381467883099953
aF2.0488908544403515
aF2.2760090644316873
aF1.1228306822954297
aF1.2491506622642647
aF2.5775187197079874
aF3.051520218778497
aF1.1670934893855847
aF1.9501485111767016
aF2.53921662139835
aF0.5304143810950698
aF2.2094227488045055
aF1.4271879780152656
aF1.893269122088729
aF1.6724514423714003
aF2.237174849298359
aF2.9838316789995707
aF3.137487697919936
aF1.4743125427839114
aF4.855127074125244
aF1.4810376919156023
aF3.1489915407074935
aF2.76396524548195
aF1.2074392059026409
aF2.075101149071892
aF1.3725975225845233
aF2.24039442047676
aF1.287312146151956
aF2.198619152902365
aF1.6394369662532078
aF2.1150065733016388
aF2.2051747293402717
aF1.2666169538616283
aF1.5565043533316143
aF2.5891215386151933
aF2.9384432509463903
aF3.3592802627590763
aF2.1371952403675873
aF1.8834867364894552
aF2.236687640691076
a.