(lp0
F0.04097189125019356
aF0.06108537171231103
aF0.057126613800421104
aF0.0396442053751136
aF0.07792646309004317
aF0.08468010475807362
aF0.05796393070096354
aF0.05669696437008231
aF0.057971315744347586
aF0.053144858265080544
aF0.034736464856898824
aF0.026241545119637322
aF0.06041241699456226
aF0.03652215354948987
aF0.04452871538444558
aF0.03337155333188232
aF0.0358186292906976
aF0.04035904612039527
aF0.05246369665529852
aF0.02755386623400418
aF0.06261083327279898
aF0.0776054951083382
aF0.030578532495843747
aF0.04599271849843047
aF0.07826522953665495
aF0.03151468125414812
aF0.043298125799417775
aF0.03981784059582084
aF0.03669860009468799
aF0.029084552523500652
aF0.04328694429463057
aF0.0520783099558767
aF0.043328876600500214
aF0.059428904354505686
aF0.028211676796288894
aF0.047610303639699425
aF0.04992798786566236
aF0.041723694912251134
aF0.06273084099967108
aF0.06205566600239239
aF0.08160372016599256
aF0.04624649709573423
aF0.033287178974870456
aF0.05061322065556352
aF0.07062047777000391
aF0.04372114059821877
aF0.04061470013124817
aF0.0627853799507289
aF0.06730910162167816
aF0.060099350126404966
aF0.06222778583141705
aF0.03114464250017533
aF0.03167500088013764
aF0.0321123784811241
aF0.036003554475923856
aF0.06360005301031019
aF0.03950439305168589
aF0.07800534460816154
aF0.05129965778567962
aF0.03421786559605638
aF0.033042677567144546
aF0.06471838581379917
a.