(lp0
F0.04815805273705969
aF0.052566416382047954
aF0.03726397789610109
aF0.054722596837267594
aF0.0768641281198614
aF0.0605807347373289
aF0.05408700087843913
aF0.04270915479404687
aF0.08128476688692646
aF0.06950870186817862
aF0.0577570427700795
aF0.10364110435128483
aF0.07268737457945643
aF0.06836739184265059
aF0.05461666889188645
aF0.0576324177877707
aF0.05412283324778725
aF0.06864014262959048
aF0.06424940389653447
aF0.05436131915485196
aF0.06762997213872156
aF0.06940422095633796
aF0.05620190082557965
aF0.054209120766119834
aF0.06508515664735294
aF0.11498103688135773
aF0.060965093197811834
aF0.0834823171383792
aF0.09413487934315139
aF0.057554204281627996
aF0.07205618901498072
aF0.09356795454507844
aF0.06025608124745495
aF0.05450767553643506
aF0.0635364005148577
aF0.05908076406108847
aF0.07032760846715691
aF0.05741360590603569
aF0.0465374500441515
aF0.08373662552881468
aF0.02438528109640933
aF0.06546304085977933
aF0.05279789902414424
aF0.0681801242435078
aF0.07322799844453476
aF0.049887295131408244
aF0.0562684941778057
aF0.06612320167788867
aF0.06372619778930881
aF0.04061293925921759
aF0.06894596657763753
aF0.0818679015135356
aF0.056454063968142947
aF0.047628375544379035
aF0.07813256715421896
aF0.06959977674907078
aF0.07556470061173699
aF0.0765446581600749
aF0.0852208131267533
aF0.07070105366686297
aF0.05345577825925541
aF0.06745825381242336
aF0.07002477615942425
aF0.04238029699586439
aF0.07988363279455091
aF0.05808276167950224
aF0.05140521421096934
aF0.07381755117722406
aF0.0522004166015993
aF0.0603021055052189
aF0.0646218335604067
aF0.05908878089887269
aF0.05839131099788203
aF0.08098855794067036
aF0.06746016099622074
aF0.06561106378826896
aF0.0760571690035942
aF0.07101412321063147
aF0.058944450678991206
aF0.06471204385602217
aF0.06722347588451177
aF0.06803783840703478
aF0.056393001304707265
aF0.05507047783969749
aF0.04316914724222803
aF0.050650244916572655
aF0.060457292933831557
aF0.05117237370460349
aF0.06761266870647961
aF0.06376425946195394
aF0.0520700516295513
aF0.08575496740563485
aF0.0720435553406811
aF0.07262589206516507
aF0.06685350412517223
aF0.04390593052231281
aF0.05878324202840575
aF0.05447927671869111
a.